(lp0
(lp1
F236.45151515151514
aF256.09393939393937
aF260.49393939393934
aF267.6848484848485
aF271.8545454545455
aF271.15909090909093
aF273.369696969697
aF276.5545454545454
aF277.21666666666664
aF284.1772727272728
aF282.68030303030304
aF280.73939393939395
aF278.6242424242424
aF284.9045454545455
aF284.4348484848486
aF283.7772727272728
aF293.6515151515152
aF297.68030303030315
aF302.4727272727272
aF303.63636363636357
aF305.8409090909091
aF308.5787878787878
aF308.75454545454545
aF309.5757575757576
aF310.3772727272728
aF310.5060606060606
aF310.88181818181806
aF310.51363636363635
aF310.00606060606066
aF310.289393939394
aF310.8454545454545
aF310.34090909090924
aF311.47121212121215
aF309.80303030303025
aF309.71363636363634
aF310.78484848484857
aF310.4
aF310.98787878787886
aF311.78181818181815
aF310.00909090909084
aF310.47272727272735
aF310.53333333333336
aF310.1333333333332
aF310.8575757575757
aF310.77424242424246
aF310.0636363636364
aF311.0666666666666
aF309.1545454545456
aF311.4393939393939
aF310.9348484848485
aF310.5136363636363
aF311.2757575757576
aF310.54242424242426
aF311.3636363636363
aF311.3090909090909
aF311.50757575757575
aF310.2575757575758
aF310.01060606060594
aF310.8060606060605
aF311.25909090909107
aF311.3500000000001
aF311.52878787878797
aF311.41212121212135
aF310.17272727272723
aF311.32575757575756
aF311.8500000000001
aF310.7242424242424
aF309.4772727272727
aF311.49545454545455
aF310.9045454545455
aF310.48939393939395
aF311.478787878788
aF311.980303030303
aF311.97727272727275
aF311.63333333333327
aF310.0954545454545
aF311.00606060606066
aF312.21818181818185
aF310.1651515151514
aF311.38030303030314
aF312.01515151515156
aF311.2363636363636
aF311.6560606060605
aF311.6681818181818
aF311.74242424242414
aF311.69393939393944
aF310.8954545454546
aF311.77727272727265
aF310.4469696969697
aF307.789393939394
aF311.15
aF312.1333333333333
aF308.439393939394
aF310.7333333333334
aF311.7666666666667
aF312.17878787878783
aF311.45000000000005
aF310.62272727272733
aF310.03030303030306
aF309.8712121212122
aF310.3181818181818
aF311.6939393939394
aF311.2045454545454
aF312.2121212121211
aF312.03181818181815
aF311.99393939393946
aF312.27878787878785
aF312.56818181818187
aF312.2818181818182
aF312.9303030303029
aF312.32424242424247
aF312.19999999999993
aF311.56515151515134
aF311.05757575757565
aF312.0984848484848
aF313.0712121212121
aF313.1636363636363
aF310.3272727272728
aF312.7727272727272
aF311.5318181818181
aF312.36666666666656
aF311.1484848484849
aF313.0636363636364
aF312.03333333333336
aF312.2181818181818
aF311.3560606060608
aF312.6575757575757
aF312.4560606060606
aF311.6090909090909
aF311.4363636363636
aF313.0848484848484
aF311.7242424242425
aF313.2227272727274
aF314.3969696969698
aF314.46060606060615
aF316.07424242424247
aF315.75909090909084
aF315.74090909090904
aF316.17878787878794
aF316.49999999999994
aF314.63333333333316
aF316.62575757575746
aF316.3590909090909
aF313.4333333333333
aF315.7363636363637
aF314.01060606060605
aF315.8469696969697
aF313.8303030303029
aF315.3848484848485
aF313.53333333333336
aF315.62272727272733
aF314.4696969696969
aF315.1136363636363
aF316.00757575757586
aF315.4090909090909
aF315.85151515151506
aF315.72878787878784
aF315.74696969696964
aF315.4242424242424
aF310.5121212121211
aF314.71363636363634
aF315.8030303030303
aF314.58484848484846
aF315.7060606060607
aF314.16363636363633
aF315.42121212121214
aF314.35606060606045
aF315.910606060606
aF313.68939393939394
aF315.43636363636375
aF315.18030303030315
aF315.88787878787883
aF314.34545454545463
aF315.0969696969696
aF313.76515151515156
aF315.67272727272734
aF315.7848484848484
aF314.5969696969697
aF315.49242424242414
aF315.68787878787884
aF316.1893939393938
aF315.34848484848476
aF316.1060606060608
aF315.57727272727277
aF315.0136363636364
aF314.98030303030305
aF315.1030303030304
aF315.01969696969707
aF313.54545454545456
aF316.1166666666666
aF315.0969696969697
aF315.93939393939394
aF315.88333333333327
aF315.01060606060605
aF314.7469696969698
aF314.5439393939394
aF315.6121212121213
aF314.9575757575756
aF315.3333333333333
aF313.34393939393937
aF315.6196969696969
aF315.71363636363634
aF314.7121212121213
aF315.5287878787878
aF314.4666666666668
aF315.00151515151526
aF315.88787878787883
aF315.7878787878788
aF314.3227272727272
aF315.0878787878788
aF315.98181818181814
aF315.2015151515151
aF313.9772727272727
aF314.48787878787874
aF315.34696969696967
aF315.23636363636354
aF312.85151515151506
aF314.78181818181815
aF313.91969696969704
aF315.6318181818182
aF315.83636363636367
aF312.2909090909091
aF315.59696969696967
aF315.45909090909095
aF315.42878787878783
aF315.46515151515143
aF314.22272727272724
aF312.4227272727273
aF316.07727272727266
aF314.6318181818182
aF316.4575757575757
aF316.37424242424237
aF314.24393939393934
aF314.1530303030304
aF315.38333333333327
aF315.9469696969698
aF313.3484848484849
aF315.54393939393947
aF314.06818181818187
aF315.7954545454547
aF315.72878787878784
aF314.93333333333334
aF314.75303030303024
aF314.380303030303
aF314.45606060606053
aF312.67424242424244
aF314.4727272727272
aF314.0727272727273
aF315.4409090909092
aF314.28636363636366
aF315.8803030303031
aF315.9560606060605
aF315.9924242424243
aF314.3121212121213
aF313.9030303030303
aF315.3060606060607
aF314.21969696969705
aF315.95909090909095
aF315.830303030303
aF315.939393939394
aF315.56363636363636
aF315.58787878787876
aF315.53939393939396
aF312.78939393939385
aF315.25757575757575
aF316.2530303030304
aF313.569696969697
aF313.30454545454546
aF314.868181818182
aF316.3181818181818
aF315.95
aF316.32424242424236
aF316.54242424242426
aF315.1803030303032
aF314.94242424242435
aF314.18333333333334
aF315.81363636363636
aF315.5666666666666
aF316.56969696969696
aF317.1166666666667
aF316.24696969696976
aF316.5348484848485
aF315.85454545454536
aF315.53333333333325
aF314.86060606060613
aF315.9363636363636
aF316.5803030303031
aF316.3106060606061
aF314.35151515151523
aF316.50151515151526
aF312.43484848484854
aF316.76818181818186
aF316.48181818181826
aF314.9090909090909
aF315.3939393939393
aF314.6484848484849
aF316.5818181818182
aF316.78030303030306
aF316.50909090909096
aF316.42878787878794
aF316.3090909090908
aF316.5924242424243
aF314.98484848484844
aF317.4030303030303
aF314.9318181818181
aF315.8075757575759
aF314.96212121212125
aF316.1818181818182
aF315.1348484848485
aF316.83484848484835
aF317.128787878788
aF314.85303030303027
aF316.29393939393935
aF317.13484848484865
aF316.15757575757567
aF315.1242424242425
aF316.7772727272729
aF317.1227272727273
aF315.4227272727274
aF317.11515151515147
aF316.990909090909
aF316.74696969696976
aF316.180303030303
aF316.04545454545445
aF316.9333333333333
aF316.4393939393941
aF314.6060606060607
aF317.6348484848484
aF314.27272727272737
aF314.2712121212122
aF315.9196969696969
aF316.8181818181818
aF317.20454545454544
aF317.49545454545455
aF317.3454545454544
aF317.52272727272737
aF316.61363636363643
aF316.79242424242426
aF316.24393939393934
aF316.84090909090907
aF317.53484848484857
aF317.4575757575757
aF317.30757575757576
aF316.1681818181818
aF317.73939393939395
aF316.87272727272716
aF316.5666666666667
aF313.9287878787879
aF317.3469696969696
aF316.5257575757575
aF314.33636363636367
aF317.2454545454546
aF316.28333333333336
aF317.9924242424241
aF315.9242424242424
aF316.74848484848474
aF315.3893939393939
aF317.27575757575755
aF316.339393939394
aF315.15454545454537
aF317.1909090909091
aF316.60909090909087
aF317.30000000000007
aF317.1136363636364
aF316.3500000000001
aF317.7136363636364
aF316.0848484848484
aF316.1742424242424
aF318.07272727272726
aF317.7272727272727
aF317.6469696969697
aF317.2878787878788
aF317.46363636363634
aF317.3863636363636
aF315.52121212121205
aF316.05909090909086
aF315.6969696969697
aF317.14090909090913
aF314.41212121212135
aF316.4606060606062
aF317.2363636363636
aF316.7090909090909
aF315.01363636363635
aF315.78333333333313
aF317.42727272727285
aF317.1015151515152
aF317.06060606060595
aF317.6136363636362
aF317.91363636363633
aF317.1893939393939
aF317.78333333333336
aF317.30909090909086
aF316.34696969696967
aF316.2409090909092
aF316.79999999999995
aF316.01515151515156
aF317.1166666666667
aF317.9090909090908
aF316.70303030303035
aF316.38181818181823
aF316.8121212121212
aF317.1333333333334
aF315.7666666666667
aF317.4272727272728
aF315.97878787878795
aF317.2530303030304
aF316.6409090909091
aF317.080303030303
aF317.9878787878787
aF315.3742424242426
aF317.68030303030287
aF315.75303030303036
aF316.1287878787879
aF317.2530303030304
aF316.930303030303
aF317.09696969696967
aF316.74090909090927
aF317.8893939393939
aF315.5515151515153
aF313.97272727272747
aF316.1969696969697
aF314.9818181818181
aF316.6787878787879
aF316.26969696969695
aF316.7833333333334
aF316.29545454545456
aF317.15303030303033
aF317.018181818182
aF315.78333333333313
aF317.66515151515136
aF316.8545454545455
aF316.18636363636364
aF317.25454545454545
aF315.4515151515151
aF316.8287878787878
aF317.3257575757576
aF316.83181818181816
aF316.8318181818182
aF317.1151515151516
aF317.19848484848495
aF315.80757575757576
aF317.67424242424255
aF317.22121212121215
aF317.01666666666665
aF315.32424242424247
aF316.31666666666666
aF314.96515151515143
aF316.18181818181824
aF316.00606060606066
aF317.510606060606
aF316.3439393939395
aF317.22878787878795
aF315.3712121212121
aF316.3136363636365
aF317.028787878788
aF315.9151515151514
aF317.46515151515155
aF315.07575757575773
aF316.2696969696971
aF317.3575757575757
aF316.41212121212124
aF317.11363636363626
aF316.73787878787897
aF316.8075757575759
aF315.9439393939394
aF315.7242424242424
aF316.94393939393944
aF312.4166666666667
aF316.99848484848485
aF316.930303030303
aF316.8969696969697
aF317.55606060606056
aF317.27575757575755
aF316.45151515151525
aF317.209090909091
aF316.878787878788
aF315.10303030303027
aF317.2878787878788
aF317.11515151515147
aF316.1878787878788
aF317.08484848484846
aF317.3166666666667
aF317.2424242424242
aF317.73787878787886
aF317.4333333333335
aF317.0484848484849
aF315.67727272727274
aF317.7196969696969
aF318.2045454545454
aF317.19242424242424
aF316.4363636363636
aF317.1893939393938
aF316.9287878787879
aF316.9939393939393
aF316.2348484848483
aF315.48030303030305
aF316.2000000000001
aF316.74090909090904
aF317.3575757575757
aF315.8257575757576
aa(lp2
F172.63636363636363
aF203.8181818181818
aF213.54545454545453
aF196.9090909090909
aF228.45454545454547
aF236.72727272727272
aF207.27272727272728
aF250.27272727272728
aF219.72727272727272
aF269.8181818181818
aF245.0909090909091
aF228.0909090909091
aF221.54545454545453
aF228.63636363636363
aF228.0
aF220.72727272727272
aF255.9090909090909
aF259.27272727272725
aF229.9090909090909
aF276.90909090909093
aF299.72727272727275
aF302.09090909090907
aF257.8181818181818
aF304.0
aF304.27272727272725
aF304.45454545454544
aF306.1818181818182
aF273.6363636363636
aF276.72727272727275
aF268.0
aF292.1818181818182
aF297.27272727272725
aF306.45454545454544
aF265.6363636363636
aF275.72727272727275
aF293.54545454545456
aF305.0
aF303.8181818181818
aF307.72727272727275
aF238.54545454545453
aF270.3636363636364
aF267.3636363636364
aF279.8181818181818
aF306.72727272727275
aF269.09090909090907
aF270.3636363636364
aF307.1818181818182
aF235.63636363636363
aF306.6363636363636
aF295.8181818181818
aF271.90909090909093
aF302.0
aF284.0
aF304.72727272727275
aF279.72727272727275
aF305.45454545454544
aF282.1818181818182
aF247.72727272727272
aF276.90909090909093
aF299.45454545454544
aF306.09090909090907
aF306.72727272727275
aF304.72727272727275
aF242.8181818181818
aF260.90909090909093
aF307.1818181818182
aF277.0
aF226.45454545454547
aF306.8181818181818
aF256.45454545454544
aF271.45454545454544
aF307.0
aF307.09090909090907
aF307.1818181818182
aF305.72727272727275
aF226.0
aF306.6363636363636
aF306.8181818181818
aF247.1818181818182
aF273.3636363636364
aF297.09090909090907
aF296.6363636363636
aF307.1818181818182
aF306.72727272727275
aF306.45454545454544
aF306.6363636363636
aF264.3636363636364
aF304.45454545454544
aF246.63636363636363
aF213.1818181818182
aF287.6363636363636
aF307.8181818181818
aF221.27272727272728
aF280.45454545454544
aF306.0
aF307.6363636363636
aF290.45454545454544
aF237.45454545454547
aF218.36363636363637
aF220.72727272727272
aF227.45454545454547
aF307.8181818181818
aF286.09090909090907
aF307.09090909090907
aF307.72727272727275
aF299.90909090909093
aF308.45454545454544
aF307.54545454545456
aF292.8181818181818
aF306.8181818181818
aF294.8181818181818
aF263.90909090909093
aF270.6363636363636
aF245.72727272727272
aF273.54545454545456
aF306.54545454545456
aF307.09090909090907
aF242.0909090909091
aF308.45454545454544
aF244.9090909090909
aF276.72727272727275
aF213.63636363636363
aF308.45454545454544
aF237.45454545454547
aF290.3636363636364
aF227.63636363636363
aF305.0
aF292.6363636363636
aF213.0
aF243.0909090909091
aF308.1818181818182
aF221.0909090909091
aF222.1818181818182
aF278.72727272727275
aF231.8181818181818
aF311.45454545454544
aF286.27272727272725
aF298.90909090909093
aF310.27272727272725
aF310.72727272727275
aF255.63636363636363
aF311.90909090909093
aF311.72727272727275
aF227.1818181818182
aF300.3636363636364
aF224.0
aF310.3636363636364
aF206.27272727272728
aF288.8181818181818
aF202.45454545454547
aF310.27272727272725
aF235.72727272727272
aF286.27272727272725
aF299.54545454545456
aF298.27272727272725
aF310.0
aF309.90909090909093
aF311.72727272727275
aF279.6363636363636
aF230.72727272727272
aF256.90909090909093
aF311.27272727272725
aF274.54545454545456
aF311.6363636363636
aF238.9090909090909
aF309.8181818181818
aF238.8181818181818
aF310.09090909090907
aF273.09090909090907
aF300.54545454545456
aF311.90909090909093
aF310.0
aF237.0
aF283.45454545454544
aF231.36363636363637
aF311.1818181818182
aF309.72727272727275
aF267.90909090909093
aF309.0
aF307.54545454545456
aF311.8181818181818
aF273.27272727272725
aF290.0
aF279.1818181818182
aF279.54545454545456
aF273.09090909090907
aF276.90909090909093
aF271.72727272727275
aF226.1818181818182
aF311.27272727272725
aF278.54545454545456
aF310.45454545454544
aF309.72727272727275
aF245.54545454545453
aF253.45454545454547
aF234.27272727272728
aF309.54545454545456
aF239.8181818181818
aF296.27272727272725
aF229.72727272727272
aF311.90909090909093
aF310.3636363636364
aF267.0
aF302.1818181818182
aF274.45454545454544
aF283.72727272727275
aF312.1818181818182
aF304.09090909090907
aF250.0909090909091
aF284.6363636363636
aF310.90909090909093
aF310.8181818181818
aF226.0
aF236.1818181818182
aF273.09090909090907
aF240.0
aF235.27272727272728
aF284.54545454545456
aF237.72727272727272
aF311.0
aF298.27272727272725
aF208.0909090909091
aF304.3636363636364
aF310.72727272727275
aF296.0
aF270.45454545454544
aF237.45454545454547
aF210.72727272727272
aF310.27272727272725
aF232.63636363636363
aF309.72727272727275
aF276.09090909090907
aF213.63636363636363
aF234.72727272727272
aF296.09090909090907
aF310.3636363636364
aF235.45454545454547
aF278.6363636363636
aF232.8181818181818
aF298.27272727272725
aF304.54545454545456
aF289.72727272727275
aF276.90909090909093
aF239.1818181818182
aF238.36363636363637
aF250.54545454545453
aF295.0
aF232.27272727272728
aF281.27272727272725
aF238.54545454545453
aF291.3636363636364
aF310.8181818181818
aF311.0
aF241.9090909090909
aF222.1818181818182
aF309.8181818181818
aF269.90909090909093
aF311.54545454545456
aF281.3636363636364
aF310.6363636363636
aF295.6363636363636
aF311.6363636363636
aF301.27272727272725
aF243.27272727272728
aF282.72727272727275
aF311.09090909090907
aF235.27272727272728
aF222.1818181818182
aF291.6363636363636
aF311.1818181818182
aF302.45454545454544
aF310.0
aF311.8181818181818
aF265.09090909090907
aF246.8181818181818
aF254.27272727272728
aF311.72727272727275
aF293.1818181818182
aF306.8181818181818
aF311.27272727272725
aF305.0
aF311.6363636363636
aF297.72727272727275
aF306.90909090909093
aF235.0909090909091
aF248.1818181818182
aF312.1818181818182
aF311.54545454545456
aF222.72727272727272
aF310.6363636363636
aF228.72727272727272
aF306.90909090909093
aF304.54545454545456
aF233.1818181818182
aF281.0
aF229.36363636363637
aF291.72727272727275
aF310.72727272727275
aF299.1818181818182
aF311.3636363636364
aF258.72727272727275
aF277.72727272727275
aF180.72727272727272
aF312.45454545454544
aF246.54545454545453
aF289.0
aF234.1818181818182
aF295.90909090909093
aF232.27272727272728
aF295.09090909090907
aF289.6363636363636
aF184.0
aF286.90909090909093
aF311.45454545454544
aF297.45454545454544
aF231.1818181818182
aF311.45454545454544
aF272.6363636363636
aF266.3636363636364
aF312.8181818181818
aF311.3636363636364
aF306.0
aF277.8181818181818
aF271.72727272727275
aF312.6363636363636
aF298.1818181818182
aF235.9090909090909
aF312.45454545454544
aF204.54545454545453
aF231.36363636363637
aF276.72727272727275
aF304.54545454545456
aF312.0
aF312.45454545454544
aF312.72727272727275
aF312.3636363636364
aF307.90909090909093
aF312.09090909090907
aF283.6363636363636
aF300.90909090909093
aF313.27272727272725
aF299.72727272727275
aF311.8181818181818
aF229.9090909090909
aF312.72727272727275
aF287.72727272727275
aF274.8181818181818
aF179.27272727272728
aF312.8181818181818
aF248.27272727272728
aF247.0
aF312.3636363636364
aF281.72727272727275
aF310.3636363636364
aF263.90909090909093
aF312.3636363636364
aF227.45454545454547
aF310.72727272727275
aF261.6363636363636
aF201.8181818181818
aF278.0
aF288.3636363636364
aF312.90909090909093
aF269.90909090909093
aF234.8181818181818
aF310.8181818181818
aF246.9090909090909
aF284.1818181818182
aF313.3636363636364
aF312.6363636363636
aF311.6363636363636
aF313.1818181818182
aF312.1818181818182
aF312.45454545454544
aF237.8181818181818
aF264.54545454545456
aF236.27272727272728
aF302.72727272727275
aF218.1818181818182
aF254.27272727272728
aF312.3636363636364
aF276.0
aF212.0
aF271.45454545454544
aF296.0
aF308.8181818181818
aF312.1818181818182
aF311.54545454545456
aF310.45454545454544
aF291.8181818181818
aF303.3636363636364
aF306.0
aF238.27272727272728
aF232.27272727272728
aF285.54545454545456
aF273.72727272727275
aF311.72727272727275
aF312.3636363636364
aF284.1818181818182
aF271.54545454545456
aF303.1818181818182
aF313.3636363636364
aF232.36363636363637
aF313.54545454545456
aF254.54545454545453
aF312.8181818181818
aF295.90909090909093
aF292.8181818181818
aF313.45454545454544
aF242.0
aF312.3636363636364
aF226.63636363636363
aF282.8181818181818
aF312.90909090909093
aF295.09090909090907
aF304.72727272727275
aF295.09090909090907
aF312.54545454545456
aF273.45454545454544
aF202.0909090909091
aF307.27272727272725
aF237.1818181818182
aF306.09090909090907
aF263.8181818181818
aF248.0909090909091
aF237.27272727272728
aF294.54545454545456
aF298.72727272727275
aF268.90909090909093
aF307.0
aF307.1818181818182
aF249.9090909090909
aF313.27272727272725
aF231.72727272727272
aF305.72727272727275
aF313.8181818181818
aF277.3636363636364
aF313.27272727272725
aF312.8181818181818
aF309.6363636363636
aF239.0909090909091
aF311.1818181818182
aF312.09090909090907
aF276.27272727272725
aF236.1818181818182
aF262.45454545454544
aF237.0
aF278.6363636363636
aF234.1818181818182
aF312.54545454545456
aF256.27272727272725
aF311.0
aF242.36363636363637
aF289.3636363636364
aF272.90909090909093
aF246.0
aF313.72727272727275
aF237.0909090909091
aF284.3636363636364
aF311.8181818181818
aF295.90909090909093
aF312.1818181818182
aF299.6363636363636
aF275.54545454545456
aF295.54545454545456
aF233.27272727272728
aF310.8181818181818
aF222.27272727272728
aF311.54545454545456
aF297.27272727272725
aF287.8181818181818
aF311.90909090909093
aF282.09090909090907
aF272.3636363636364
aF311.45454545454544
aF311.54545454545456
aF238.45454545454547
aF314.27272727272725
aF313.3636363636364
aF310.54545454545456
aF312.72727272727275
aF287.09090909090907
aF311.8181818181818
aF311.72727272727275
aF312.09090909090907
aF310.54545454545456
aF248.36363636363637
aF312.90909090909093
aF312.1818181818182
aF305.6363636363636
aF283.90909090909093
aF313.0
aF298.54545454545456
aF289.1818181818182
aF244.8181818181818
aF282.0
aF297.0
aF312.6363636363636
aF312.6363636363636
aF237.0
aa(lp3
F284.0
aF284.0
aF285.0
aF283.6363636363636
aF288.27272727272725
aF288.27272727272725
aF287.45454545454544
aF287.45454545454544
aF288.72727272727275
aF289.3636363636364
aF288.8181818181818
aF306.1818181818182
aF303.90909090909093
aF304.0
aF307.8181818181818
aF308.27272727272725
aF307.8181818181818
aF308.72727272727275
aF313.45454545454544
aF313.45454545454544
aF313.45454545454544
aF313.8181818181818
aF316.27272727272725
aF315.09090909090907
aF315.0
aF315.0
aF314.3636363636364
aF319.3636363636364
aF318.1818181818182
aF315.09090909090907
aF316.1818181818182
aF314.90909090909093
aF315.72727272727275
aF316.09090909090907
aF315.72727272727275
aF315.72727272727275
aF316.27272727272725
aF316.27272727272725
aF316.27272727272725
aF316.27272727272725
aF316.27272727272725
aF316.27272727272725
aF316.27272727272725
aF315.8181818181818
aF316.3636363636364
aF315.27272727272725
aF315.27272727272725
aF317.3636363636364
aF317.3636363636364
aF316.45454545454544
aF317.09090909090907
aF317.09090909090907
aF316.0
aF316.0
aF316.0
aF316.0
aF317.27272727272725
aF317.27272727272725
aF316.0
aF315.72727272727275
aF315.72727272727275
aF315.6363636363636
aF315.54545454545456
aF315.27272727272725
aF315.54545454545456
aF316.1818181818182
aF316.1818181818182
aF315.8181818181818
aF316.27272727272725
aF316.09090909090907
aF315.90909090909093
aF315.1818181818182
aF316.27272727272725
aF315.90909090909093
aF315.1818181818182
aF315.09090909090907
aF316.09090909090907
aF316.09090909090907
aF316.09090909090907
aF316.27272727272725
aF316.27272727272725
aF317.8181818181818
aF317.8181818181818
aF317.8181818181818
aF316.90909090909093
aF316.54545454545456
aF317.54545454545456
aF316.54545454545456
aF316.54545454545456
aF316.8181818181818
aF316.8181818181818
aF316.0
aF316.6363636363636
aF316.6363636363636
aF315.27272727272725
aF317.54545454545456
aF316.27272727272725
aF316.27272727272725
aF316.54545454545456
aF316.8181818181818
aF316.8181818181818
aF315.6363636363636
aF315.6363636363636
aF316.09090909090907
aF316.09090909090907
aF317.0
aF316.09090909090907
aF317.72727272727275
aF317.72727272727275
aF317.72727272727275
aF317.72727272727275
aF318.72727272727275
aF317.09090909090907
aF316.8181818181818
aF317.09090909090907
aF318.0
aF318.0
aF317.6363636363636
aF318.09090909090907
aF317.90909090909093
aF317.90909090909093
aF317.6363636363636
aF317.3636363636364
aF317.3636363636364
aF320.54545454545456
aF317.45454545454544
aF317.09090909090907
aF318.27272727272725
aF318.27272727272725
aF317.54545454545456
aF319.45454545454544
aF318.90909090909093
aF319.27272727272725
aF319.6363636363636
aF319.90909090909093
aF320.72727272727275
aF320.72727272727275
aF322.54545454545456
aF321.54545454545456
aF320.8181818181818
aF320.6363636363636
aF321.8181818181818
aF321.8181818181818
aF321.8181818181818
aF321.8181818181818
aF321.8181818181818
aF320.72727272727275
aF320.72727272727275
aF320.72727272727275
aF320.72727272727275
aF319.90909090909093
aF320.54545454545456
aF319.54545454545456
aF320.8181818181818
aF319.6363636363636
aF319.54545454545456
aF321.54545454545456
aF319.72727272727275
aF319.72727272727275
aF319.72727272727275
aF321.72727272727275
aF321.72727272727275
aF321.72727272727275
aF321.72727272727275
aF321.72727272727275
aF321.72727272727275
aF320.6363636363636
aF321.1818181818182
aF320.0
aF321.1818181818182
aF319.1818181818182
aF319.45454545454544
aF319.45454545454544
aF321.54545454545456
aF319.8181818181818
aF319.8181818181818
aF319.90909090909093
aF321.1818181818182
aF321.3636363636364
aF321.3636363636364
aF321.3636363636364
aF321.3636363636364
aF321.3636363636364
aF321.3636363636364
aF320.09090909090907
aF320.27272727272725
aF321.8181818181818
aF321.8181818181818
aF321.8181818181818
aF321.8181818181818
aF321.8181818181818
aF321.8181818181818
aF321.8181818181818
aF321.3636363636364
aF322.54545454545456
aF322.54545454545456
aF322.54545454545456
aF322.54545454545456
aF322.54545454545456
aF322.54545454545456
aF322.54545454545456
aF320.54545454545456
aF320.54545454545456
aF320.54545454545456
aF320.54545454545456
aF320.54545454545456
aF320.09090909090907
aF320.09090909090907
aF320.09090909090907
aF320.09090909090907
aF320.09090909090907
aF319.90909090909093
aF319.90909090909093
aF320.6363636363636
aF320.6363636363636
aF320.6363636363636
aF320.6363636363636
aF320.6363636363636
aF319.72727272727275
aF321.09090909090907
aF321.09090909090907
aF319.8181818181818
aF319.8181818181818
aF319.8181818181818
aF319.8181818181818
aF320.45454545454544
aF320.0
aF320.0
aF320.09090909090907
aF320.6363636363636
aF320.6363636363636
aF321.0
aF320.6363636363636
aF320.6363636363636
aF320.6363636363636
aF321.54545454545456
aF325.1818181818182
aF325.1818181818182
aF322.27272727272725
aF322.27272727272725
aF321.54545454545456
aF319.27272727272725
aF319.8181818181818
aF320.1818181818182
aF320.1818181818182
aF320.27272727272725
aF320.45454545454544
aF320.45454545454544
aF320.45454545454544
aF320.45454545454544
aF320.54545454545456
aF320.45454545454544
aF320.45454545454544
aF320.6363636363636
aF319.8181818181818
aF319.6363636363636
aF319.8181818181818
aF320.45454545454544
aF320.45454545454544
aF321.09090909090907
aF320.45454545454544
aF320.72727272727275
aF320.72727272727275
aF320.54545454545456
aF323.1818181818182
aF323.1818181818182
aF320.54545454545456
aF320.6363636363636
aF320.6363636363636
aF322.09090909090907
aF322.09090909090907
aF322.09090909090907
aF320.72727272727275
aF320.54545454545456
aF320.27272727272725
aF320.1818181818182
aF322.0
aF322.0
aF323.90909090909093
aF322.0
aF322.0
aF322.0
aF322.0
aF320.45454545454544
aF321.3636363636364
aF320.90909090909093
aF320.27272727272725
aF322.54545454545456
aF322.54545454545456
aF321.6363636363636
aF321.09090909090907
aF321.1818181818182
aF321.8181818181818
aF322.54545454545456
aF322.54545454545456
aF322.54545454545456
aF322.1818181818182
aF322.1818181818182
aF322.0
aF321.54545454545456
aF321.54545454545456
aF321.8181818181818
aF322.09090909090907
aF322.09090909090907
aF321.8181818181818
aF322.72727272727275
aF321.09090909090907
aF321.09090909090907
aF321.09090909090907
aF321.45454545454544
aF323.0
aF323.0
aF323.0
aF323.0
aF322.6363636363636
aF322.8181818181818
aF322.8181818181818
aF322.8181818181818
aF322.8181818181818
aF322.8181818181818
aF322.8181818181818
aF322.72727272727275
aF322.0
aF322.0
aF322.0
aF322.45454545454544
aF322.8181818181818
aF322.8181818181818
aF322.8181818181818
aF322.54545454545456
aF321.09090909090907
aF321.45454545454544
aF321.45454545454544
aF322.72727272727275
aF321.90909090909093
aF321.90909090909093
aF321.90909090909093
aF321.27272727272725
aF321.27272727272725
aF320.3636363636364
aF321.09090909090907
aF323.09090909090907
aF323.09090909090907
aF323.09090909090907
aF323.09090909090907
aF323.09090909090907
aF323.09090909090907
aF322.8181818181818
aF321.72727272727275
aF321.72727272727275
aF322.27272727272725
aF326.27272727272725
aF326.27272727272725
aF326.27272727272725
aF326.27272727272725
aF320.90909090909093
aF322.8181818181818
aF322.90909090909093
aF322.90909090909093
aF322.90909090909093
aF322.90909090909093
aF322.90909090909093
aF323.27272727272725
aF323.27272727272725
aF323.27272727272725
aF322.3636363636364
aF321.6363636363636
aF322.3636363636364
aF322.3636363636364
aF322.45454545454544
aF322.45454545454544
aF322.45454545454544
aF322.45454545454544
aF322.45454545454544
aF321.6363636363636
aF321.6363636363636
aF322.27272727272725
aF322.72727272727275
aF322.27272727272725
aF321.8181818181818
aF321.8181818181818
aF321.8181818181818
aF320.72727272727275
aF321.72727272727275
aF322.8181818181818
aF323.09090909090907
aF323.09090909090907
aF323.27272727272725
aF321.8181818181818
aF321.54545454545456
aF321.54545454545456
aF323.09090909090907
aF321.54545454545456
aF321.54545454545456
aF321.54545454545456
aF321.54545454545456
aF321.90909090909093
aF321.90909090909093
aF321.90909090909093
aF321.90909090909093
aF320.90909090909093
aF321.27272727272725
aF321.27272727272725
aF321.1818181818182
aF320.90909090909093
aF322.27272727272725
aF320.90909090909093
aF321.27272727272725
aF322.72727272727275
aF321.6363636363636
aF323.8181818181818
aF323.8181818181818
aF324.0
aF324.0
aF322.45454545454544
aF322.45454545454544
aF322.09090909090907
aF322.09090909090907
aF322.6363636363636
aF322.6363636363636
aF320.72727272727275
aF321.45454545454544
aF323.09090909090907
aF323.09090909090907
aF323.09090909090907
aF323.09090909090907
aF321.45454545454544
aF323.09090909090907
aF321.1818181818182
aF321.1818181818182
aF322.72727272727275
aF323.72727272727275
aF322.72727272727275
aF322.72727272727275
aF322.72727272727275
aF322.3636363636364
aF322.3636363636364
aF321.72727272727275
aF321.90909090909093
aF320.6363636363636
aF321.0
aF322.1818181818182
aF321.09090909090907
aF322.27272727272725
aF322.27272727272725
aF322.27272727272725
aF322.27272727272725
aF322.27272727272725
aF322.27272727272725
aF322.27272727272725
aF322.27272727272725
aF322.27272727272725
aF322.27272727272725
aF323.6363636363636
aF323.6363636363636
aF322.27272727272725
aF321.6363636363636
aF321.6363636363636
aF322.54545454545456
aF322.54545454545456
aF321.27272727272725
aF321.27272727272725
aF321.3636363636364
aF323.3636363636364
aF321.8181818181818
aF323.45454545454544
aF323.45454545454544
aF323.45454545454544
aF323.45454545454544
aF322.8181818181818
aF322.8181818181818
aF322.8181818181818
aF322.8181818181818
aF320.90909090909093
aF320.8181818181818
aF322.09090909090907
aF322.09090909090907
aF322.09090909090907
aF321.09090909090907
aF320.72727272727275
aF322.6363636363636
aF322.6363636363636
aF323.27272727272725
aF322.6363636363636
aF322.6363636363636
aF322.6363636363636
aF322.6363636363636
aF322.6363636363636
aF323.0
aF322.6363636363636
aF321.8181818181818
aF322.1818181818182
aF321.27272727272725
aF322.1818181818182
aF322.1818181818182
aF320.6363636363636
aF322.45454545454544
aF322.8181818181818
aF322.8181818181818
aF321.27272727272725
aa.