(lp0
(lp1
(F314.09090909090907
F200.45454545454547
tp2
a(F316.3636363636364
F200.0
tp3
a(F315.72727272727275
F199.8181818181818
tp4
a(F315.54545454545456
F200.54545454545453
tp5
a(F313.0
F201.1818181818182
tp6
a(F316.1818181818182
F201.1818181818182
tp7
a(F313.72727272727275
F200.54545454545453
tp8
a(F317.09090909090907
F199.8181818181818
tp9
a(F313.09090909090907
F202.63636363636363
tp10
a(F314.90909090909093
F203.0909090909091
tp11
a(F316.0
F200.0909090909091
tp12
a(F315.6363636363636
F200.1818181818182
tp13
a(F314.54545454545456
F200.45454545454547
tp14
a(F316.54545454545456
F201.0909090909091
tp15
a(F318.54545454545456
F199.45454545454547
tp16
a(F317.45454545454544
F199.72727272727272
tp17
a(F318.09090909090907
F199.9090909090909
tp18
a(F316.0
F200.0909090909091
tp19
a(F318.09090909090907
F200.36363636363637
tp20
a(F320.6363636363636
F200.1818181818182
tp21
a(F318.27272727272725
F199.1818181818182
tp22
a(F318.0
F200.27272727272728
tp23
a(F316.09090909090907
F199.72727272727272
tp24
a(F317.1818181818182
F200.8181818181818
tp25
a(F315.90909090909093
F200.0
tp26
a(F314.45454545454544
F202.63636363636363
tp27
a(F317.3636363636364
F200.54545454545453
tp28
a(F319.0
F200.36363636363637
tp29
a(F313.1818181818182
F202.27272727272728
tp30
a(F313.54545454545456
F200.36363636363637
tp31
a(F317.45454545454544
F200.1818181818182
tp32
a(F318.3636363636364
F199.72727272727272
tp33
a(F314.45454545454544
F201.72727272727272
tp34
a(F316.45454545454544
F199.63636363636363
tp35
a(F318.0
F200.27272727272728
tp36
a(F315.6363636363636
F201.0909090909091
tp37
a(F320.8181818181818
F198.54545454545453
tp38
a(F319.6363636363636
F199.1818181818182
tp39
a(F313.54545454545456
F204.0
tp40
a(F315.72727272727275
F199.8181818181818
tp41
a(F316.0
F200.0909090909091
tp42
a(F317.6363636363636
F199.9090909090909
tp43
a(F317.45454545454544
F199.72727272727272
tp44
a(F315.8181818181818
F204.0
tp45
a(F314.3636363636364
F202.0909090909091
tp46
a(F312.54545454545456
F203.45454545454547
tp47
a(F317.09090909090907
F199.8181818181818
tp48
a(F318.09090909090907
F200.36363636363637
tp49
a(F314.0
F203.0909090909091
tp50
a(F319.3636363636364
F198.9090909090909
tp51
a(F314.1818181818182
F201.9090909090909
tp52
a(F318.54545454545456
F199.9090909090909
tp53
a(F316.09090909090907
F201.0909090909091
tp54
a(F313.8181818181818
F202.9090909090909
tp55
a(F314.1818181818182
F202.8181818181818
tp56
a(F318.45454545454544
F199.8181818181818
tp57
a(F314.27272727272725
F201.54545454545453
tp58
a(F314.8181818181818
F200.27272727272728
tp59
a(F317.09090909090907
F199.8181818181818
tp60
a(F312.8181818181818
F200.54545454545453
tp61
a(F311.09090909090907
F206.0909090909091
tp62
a(F317.90909090909093
F199.27272727272728
tp63
a(F318.09090909090907
F200.36363636363637
tp64
a(F316.1818181818182
F203.0
tp65
a(F315.90909090909093
F200.0
tp66
a(F312.45454545454544
F200.63636363636363
tp67
a(F315.45454545454544
F200.9090909090909
tp68
a(F318.27272727272725
F199.1818181818182
tp69
a(F311.3636363636364
F204.54545454545453
tp70
a(F316.45454545454544
F199.63636363636363
tp71
a(F314.72727272727275
F204.27272727272728
tp72
a(F316.8181818181818
F199.54545454545453
tp73
a(F317.0
F199.72727272727272
tp74
a(F312.27272727272725
F200.9090909090909
tp75
a(F318.27272727272725
F199.1818181818182
tp76
a(F318.0
F200.27272727272728
tp77
a(F314.45454545454544
F200.36363636363637
tp78
a(F314.72727272727275
F201.0909090909091
tp79
a(F313.6363636363636
F201.36363636363637
tp80
a(F316.27272727272725
F203.54545454545453
tp81
a(F311.45454545454544
F203.27272727272728
tp82
a(F291.45454545454544
F206.45454545454547
tp83
a(F318.3636363636364
F199.72727272727272
tp84
a(F318.0
F200.27272727272728
tp85
a(F315.09090909090907
F203.72727272727272
tp86
a(F317.72727272727275
F202.27272727272728
tp87
a(F316.6363636363636
F200.27272727272728
tp88
a(F314.6363636363636
F200.0909090909091
tp89
a(F316.45454545454544
F199.63636363636363
tp90
a(F314.27272727272725
F200.1818181818182
tp91
a(F316.45454545454544
F201.45454545454547
tp92
a(F315.6363636363636
F202.45454545454547
tp93
a(F312.1818181818182
F204.0
tp94
a(F315.3636363636364
F199.9090909090909
tp95
a(F318.90909090909093
F199.36363636363637
tp96
a(F314.09090909090907
F202.72727272727272
tp97
a(F312.45454545454544
F200.63636363636363
tp98
a(F314.6363636363636
F202.8181818181818
tp99
a(F313.90909090909093
F200.27272727272728
tp100
a(F319.3636363636364
F199.8181818181818
tp101
a(F317.54545454545456
F199.36363636363637
tp102
a(F316.09090909090907
F200.63636363636363
tp103
a(F318.90909090909093
F199.36363636363637
tp104
a(F317.45454545454544
F199.72727272727272
tp105
a(F315.72727272727275
F199.8181818181818
tp106
a(F313.3636363636364
F200.63636363636363
tp107
a(F315.72727272727275
F200.72727272727272
tp108
a(F314.6363636363636
F201.0
tp109
a(F314.27272727272725
F200.1818181818182
tp110
a(F316.27272727272725
F200.36363636363637
tp111
a(F309.27272727272725
F207.45454545454547
tp112
a(F317.54545454545456
F199.36363636363637
tp113
a(F317.54545454545456
F199.36363636363637
tp114
a(F314.8181818181818
F201.1818181818182
tp115
a(F318.0
F200.27272727272728
tp116
a(F316.8181818181818
F199.54545454545453
tp117
a(F316.0
F201.0
tp118
a(F318.8181818181818
F199.27272727272728
tp119
a(F315.09090909090907
F201.9090909090909
tp120
a(F317.27272727272725
F200.45454545454547
tp121
a(F317.09090909090907
F199.8181818181818
tp122
a(F318.0
F199.8181818181818
tp123
a(F311.45454545454544
F202.36363636363637
tp124
a(F315.09090909090907
F203.72727272727272
tp125
a(F313.6363636363636
F202.72727272727272
tp126
a(F313.90909090909093
F202.54545454545453
tp127
a(F313.1818181818182
F200.45454545454547
tp128
a(F317.90909090909093
F199.27272727272728
tp129
a(F315.8181818181818
F203.0909090909091
tp130
a(F314.0
F201.27272727272728
tp131
a(F315.90909090909093
F200.0
tp132
a(F317.3636363636364
F200.54545454545453
tp133
a(F317.90909090909093
F199.27272727272728
tp134
a(F314.6363636363636
F201.45454545454547
tp135
a(F312.09090909090907
F200.72727272727272
tp136
a(F313.1818181818182
F204.54545454545453
tp137
a(F315.0
F200.0
tp138
a(F316.27272727272725
F200.8181818181818
tp139
a(F318.27272727272725
F199.63636363636363
tp140
a(F315.6363636363636
F200.1818181818182
tp141
a(F314.8181818181818
F200.27272727272728
tp142
a(F314.1818181818182
F200.54545454545453
tp143
a(F314.54545454545456
F203.1818181818182
tp144
a(F319.27272727272725
F199.27272727272728
tp145
a(F315.72727272727275
F199.8181818181818
tp146
a(F313.90909090909093
F200.27272727272728
tp147
a(F316.8181818181818
F199.54545454545453
tp148
a(F316.3636363636364
F203.1818181818182
tp149
a(F316.6363636363636
F199.8181818181818
tp150
a(F317.1818181818182
F199.45454545454547
tp151
a(F316.54545454545456
F202.0
tp152
a(F314.09090909090907
F201.36363636363637
tp153
a(F316.6363636363636
F201.1818181818182
tp154
a(F315.72727272727275
F201.1818181818182
tp155
a(F316.0
F201.0
tp156
a(F315.3636363636364
F199.9090909090909
tp157
a(F319.45454545454544
F199.9090909090909
tp158
a(F319.6363636363636
F199.1818181818182
tp159
a(F316.8181818181818
F199.54545454545453
tp160
a(F315.90909090909093
F200.45454545454547
tp161
a(F311.72727272727275
F204.0
tp162
a(F311.54545454545456
F201.0909090909091
tp163
a(F317.1818181818182
F200.36363636363637
tp164
a(F314.54545454545456
F200.9090909090909
tp165
a(F317.8181818181818
F199.63636363636363
tp166
a(F315.09090909090907
F201.9090909090909
tp167
a(F312.3636363636364
F203.72727272727272
tp168
a(F316.72727272727275
F199.9090909090909
tp169
a(F317.8181818181818
F200.0909090909091
tp170
a(F313.6363636363636
F202.27272727272728
tp171
a(F317.0
F199.72727272727272
tp172
a(F317.54545454545456
F199.36363636363637
tp173
a(F315.27272727272725
F201.63636363636363
tp174
a(F317.54545454545456
F199.8181818181818
tp175
a(F313.1818181818182
F201.36363636363637
tp176
a(F319.27272727272725
F199.27272727272728
tp177
a(F314.45454545454544
F203.0909090909091
tp178
a(F315.72727272727275
F202.0909090909091
tp179
a(F316.54545454545456
F200.63636363636363
tp180
a(F315.72727272727275
F199.8181818181818
tp181
a(F313.54545454545456
F205.36363636363637
tp182
a(F313.54545454545456
F200.36363636363637
tp183
a(F315.72727272727275
F199.8181818181818
tp184
a(F315.72727272727275
F200.72727272727272
tp185
a(F315.90909090909093
F200.0
tp186
a(F317.1818181818182
F199.45454545454547
tp187
a(F317.1818181818182
F199.45454545454547
tp188
a(F316.45454545454544
F200.54545454545453
tp189
a(F310.09090909090907
F202.8181818181818
tp190
a(F310.54545454545456
F205.0909090909091
tp191
a(F313.1818181818182
F200.45454545454547
tp192
a(F312.90909090909093
F203.36363636363637
tp193
a(F315.72727272727275
F201.1818181818182
tp194
a(F313.45454545454544
F204.8181818181818
tp195
a(F317.3636363636364
F199.63636363636363
tp196
a(F318.90909090909093
F199.36363636363637
tp197
a(F312.0
F203.8181818181818
tp198
a(F313.45454545454544
F202.0909090909091
tp199
a(F315.6363636363636
F201.54545454545453
tp200
a(F313.54545454545456
F201.72727272727272
tp201
a(F316.72727272727275
F202.1818181818182
tp202
a(F316.72727272727275
F199.9090909090909
tp203
a(F318.1818181818182
F200.9090909090909
tp204
a(F316.8181818181818
F199.54545454545453
tp205
a(F316.09090909090907
F199.72727272727272
tp206
a(F317.3636363636364
F200.54545454545453
tp207
a(F314.27272727272725
F204.27272727272728
tp208
a(F314.54545454545456
F201.36363636363637
tp209
a(F314.8181818181818
F200.27272727272728
tp210
a(F315.3636363636364
F199.9090909090909
tp211
a(F318.3636363636364
F200.1818181818182
tp212
a(F318.3636363636364
F200.1818181818182
tp213
a(F317.45454545454544
F199.72727272727272
tp214
a(F317.8181818181818
F199.63636363636363
tp215
a(F312.1818181818182
F202.1818181818182
tp216
a(F317.72727272727275
F199.54545454545453
tp217
a(F315.6363636363636
F202.0
tp218
a(F318.6363636363636
F200.0
tp219
a(F313.3636363636364
F203.8181818181818
tp220
a(F315.72727272727275
F199.8181818181818
tp221
a(F313.0
F203.45454545454547
tp222
a(F315.6363636363636
F201.0909090909091
tp223
a(F320.6363636363636
F200.1818181818182
tp224
a(F317.90909090909093
F199.27272727272728
tp225
a(F318.45454545454544
F199.8181818181818
tp226
a(F317.72727272727275
F199.54545454545453
tp227
a(F318.72727272727275
F199.63636363636363
tp228
a(F316.54545454545456
F200.1818181818182
tp229
a(F313.72727272727275
F201.9090909090909
tp230
a(F317.09090909090907
F200.27272727272728
tp231
a(F317.90909090909093
F199.27272727272728
tp232
a(F317.3636363636364
F199.63636363636363
tp233
a(F316.45454545454544
F201.45454545454547
tp234
a(F315.3636363636364
F200.8181818181818
tp235
a(F315.6363636363636
F200.1818181818182
tp236
a(F319.1818181818182
F200.54545454545453
tp237
a(F318.09090909090907
F199.45454545454547
tp238
a(F317.1818181818182
F199.45454545454547
tp239
a(F311.0
F201.0
tp240
a(F313.1818181818182
F205.0
tp241
a(F315.3636363636364
F203.54545454545453
tp242
a(F317.54545454545456
F199.36363636363637
tp243
a(F315.8181818181818
F200.36363636363637
tp244
a(F315.1818181818182
F202.0
tp245
a(F317.27272727272725
F200.9090909090909
tp246
a(F316.09090909090907
F199.72727272727272
tp247
a(F318.45454545454544
F199.8181818181818
tp248
a(F319.0
F200.36363636363637
tp249
a(F317.3636363636364
F199.63636363636363
tp250
a(F317.90909090909093
F199.27272727272728
tp251
a(F314.90909090909093
F200.36363636363637
tp252
a(F314.6363636363636
F200.0909090909091
tp253
a(F315.27272727272725
F201.1818181818182
tp254
a(F316.3636363636364
F200.9090909090909
tp255
a(F316.45454545454544
F201.45454545454547
tp256
a(F317.3636363636364
F201.0
tp257
a(F315.90909090909093
F200.45454545454547
tp258
a(F312.54545454545456
F202.0909090909091
tp259
a(F313.0
F204.36363636363637
tp260
a(F314.3636363636364
F200.72727272727272
tp261
a(F312.45454545454544
F206.0909090909091
tp262
a(F310.8181818181818
F206.72727272727272
tp263
a(F317.8181818181818
F199.63636363636363
tp264
a(F317.1818181818182
F199.9090909090909
tp265
a(F315.45454545454544
F200.45454545454547
tp266
a(F316.1818181818182
F200.27272727272728
tp267
a(F316.54545454545456
F200.63636363636363
tp268
a(F314.45454545454544
F200.36363636363637
tp269
a(F313.90909090909093
F203.45454545454547
tp270
a(F317.54545454545456
F202.0909090909091
tp271
a(F317.3636363636364
F200.0909090909091
tp272
a(F314.72727272727275
F200.63636363636363
tp273
a(F316.8181818181818
F199.54545454545453
tp274
a(F318.6363636363636
F199.0909090909091
tp275
a(F316.6363636363636
F201.1818181818182
tp276
a(F314.27272727272725
F200.1818181818182
tp277
a(F318.09090909090907
F200.36363636363637
tp278
a(F317.09090909090907
F199.8181818181818
tp279
a(F314.45454545454544
F202.1818181818182
tp280
a(F314.90909090909093
F200.36363636363637
tp281
a(F317.45454545454544
F199.72727272727272
tp282
a(F315.72727272727275
F201.1818181818182
tp283
a(F316.3636363636364
F201.36363636363637
tp284
a(F320.3636363636364
F199.0
tp285
a(F314.09090909090907
F200.45454545454547
tp286
a(F316.8181818181818
F199.54545454545453
tp287
a(F316.45454545454544
F203.27272727272728
tp288
a(F319.3636363636364
F198.9090909090909
tp289
a(F313.6363636363636
F202.27272727272728
tp290
a(F312.27272727272725
F201.36363636363637
tp291
a(F316.8181818181818
F200.9090909090909
tp292
a(F315.54545454545456
F203.27272727272728
tp293
a(F317.54545454545456
F199.36363636363637
tp294
a(F309.6363636363636
F210.54545454545453
tp295
a(F317.90909090909093
F199.27272727272728
tp296
a(F317.27272727272725
F201.36363636363637
tp297
a(F315.54545454545456
F200.54545454545453
tp298
a(F317.1818181818182
F199.45454545454547
tp299
a(F315.27272727272725
F200.27272727272728
tp300
a(F312.3636363636364
F207.36363636363637
tp301
a(F313.8181818181818
F206.0909090909091
tp302
a(F315.1818181818182
F200.63636363636363
tp303
a(F318.0
F199.8181818181818
tp304
a(F315.90909090909093
F200.45454545454547
tp305
a(F311.72727272727275
F204.0
tp306
a(F311.1818181818182
F205.72727272727272
tp307
a(F313.54545454545456
F200.36363636363637
tp308
a(F314.72727272727275
F201.54545454545453
tp309
a(F312.09090909090907
F200.72727272727272
tp310
a(F314.72727272727275
F201.0909090909091
tp311
a(F314.90909090909093
F203.0909090909091
tp312
a(F312.09090909090907
F210.27272727272728
tp313
a(F314.54545454545456
F201.36363636363637
tp314
a(F317.27272727272725
F200.45454545454547
tp315
a(F317.09090909090907
F199.8181818181818
tp316
a(F316.27272727272725
F199.9090909090909
tp317
a(F316.09090909090907
F199.72727272727272
tp318
a(F314.54545454545456
F202.72727272727272
tp319
a(F314.54545454545456
F200.45454545454547
tp320
a(F316.09090909090907
F199.72727272727272
tp321
a(F312.09090909090907
F201.63636363636363
tp322
a(F318.27272727272725
F201.0
tp323
a(F316.90909090909093
F201.0
tp324
a(F317.09090909090907
F199.8181818181818
tp325
a(F315.90909090909093
F200.45454545454547
tp326
a(F318.8181818181818
F199.27272727272728
tp327
a(F312.27272727272725
F201.36363636363637
tp328
a(F317.1818181818182
F200.36363636363637
tp329
a(F311.27272727272725
F203.54545454545453
tp330
a(F312.27272727272725
F203.1818181818182
tp331
a(F314.27272727272725
F202.9090909090909
tp332
a(F314.27272727272725
F200.1818181818182
tp333
a(F313.27272727272725
F205.0909090909091
tp334
a(F313.6363636363636
F202.72727272727272
tp335
a(F315.27272727272725
F200.27272727272728
tp336
a(F311.1818181818182
F208.0
tp337
a(F312.72727272727275
F202.72727272727272
tp338
a(F317.09090909090907
F199.8181818181818
tp339
a(F317.3636363636364
F199.63636363636363
tp340
a(F313.54545454545456
F201.27272727272728
tp341
a(F311.3636363636364
F202.27272727272728
tp342
a(F314.45454545454544
F200.8181818181818
tp343
a(F316.8181818181818
F200.45454545454547
tp344
a(F316.8181818181818
F199.54545454545453
tp345
a(F316.3636363636364
F200.0
tp346
a(F315.3636363636364
F199.9090909090909
tp347
a(F314.3636363636364
F202.54545454545453
tp348
a(F314.09090909090907
F201.8181818181818
tp349
a(F319.45454545454544
F199.9090909090909
tp350
a(F317.90909090909093
F199.27272727272728
tp351
a(F315.72727272727275
F199.8181818181818
tp352
a(F317.27272727272725
F203.1818181818182
tp353
a(F225.72727272727272
F196.63636363636363
tp354
a(F316.09090909090907
F199.72727272727272
tp355
a(F311.72727272727275
F207.63636363636363
tp356
a(F318.54545454545456
F200.8181818181818
tp357
a(F317.27272727272725
F200.45454545454547
tp358
a(F316.45454545454544
F202.36363636363637
tp359
a(F317.72727272727275
F199.54545454545453
tp360
a(F312.27272727272725
F203.63636363636363
tp361
a(F315.72727272727275
F201.1818181818182
tp362
a(F315.0
F202.72727272727272
tp363
a(F318.0
F200.27272727272728
tp364
a(F315.90909090909093
F200.45454545454547
tp365
a(F316.3636363636364
F201.36363636363637
tp366
a(F314.54545454545456
F200.45454545454547
tp367
a(F312.0
F205.63636363636363
tp368
a(F315.0
F200.0
tp369
a(F312.0
F204.27272727272728
tp370
a(F316.90909090909093
F200.0909090909091
tp371
a(F315.0
F200.9090909090909
tp372
a(F321.09090909090907
F198.8181818181818
tp373
a(F310.72727272727275
F204.36363636363637
tp374
a(F314.09090909090907
F201.36363636363637
tp375
a(F313.27272727272725
F203.72727272727272
tp376
a(F316.09090909090907
F201.54545454545453
tp377
a(F318.90909090909093
F199.36363636363637
tp378
a(F314.8181818181818
F200.27272727272728
tp379
a(F316.0
F200.0909090909091
tp380
a(F317.8181818181818
F199.63636363636363
tp381
a(F315.90909090909093
F200.0
tp382
a(F318.0
F200.72727272727272
tp383
a(F316.27272727272725
F202.1818181818182
tp384
a(F316.45454545454544
F199.63636363636363
tp385
a(F314.72727272727275
F200.63636363636363
tp386
a(F315.3636363636364
F202.1818181818182
tp387
a(F317.72727272727275
F200.9090909090909
tp388
a(F317.3636363636364
F201.0
tp389
a(F314.27272727272725
F200.1818181818182
tp390
a(F315.45454545454544
F200.9090909090909
tp391
a(F316.6363636363636
F200.27272727272728
tp392
a(F314.45454545454544
F201.72727272727272
tp393
a(F316.8181818181818
F199.54545454545453
tp394
a(F316.54545454545456
F200.1818181818182
tp395
a(F316.09090909090907
F199.72727272727272
tp396
a(F314.45454545454544
F200.8181818181818
tp397
a(F314.8181818181818
F200.27272727272728
tp398
a(F314.3636363636364
F200.72727272727272
tp399
a(F280.8181818181818
F184.9090909090909
tp400
a(F316.90909090909093
F200.0909090909091
tp401
a(F317.54545454545456
F199.36363636363637
tp402
a(F315.90909090909093
F200.9090909090909
tp403
a(F318.90909090909093
F199.36363636363637
tp404
a(F318.09090909090907
F200.36363636363637
tp405
a(F318.3636363636364
F200.63636363636363
tp406
a(F316.09090909090907
F200.63636363636363
tp407
a(F312.90909090909093
F201.54545454545453
tp408
a(F313.54545454545456
F201.72727272727272
tp409
a(F313.1818181818182
F200.45454545454547
tp410
a(F315.72727272727275
F203.0
tp411
a(F298.27272727272725
F184.1818181818182
tp412
a(F316.54545454545456
F200.1818181818182
tp413
a(F313.54545454545456
F200.36363636363637
tp414
a(F314.1818181818182
F203.27272727272728
tp415
a(F316.6363636363636
F200.72727272727272
tp416
a(F312.27272727272725
F202.27272727272728
tp417
a(F316.27272727272725
F200.36363636363637
tp418
a(F315.6363636363636
F201.0909090909091
tp419
a(F316.45454545454544
F201.0
tp420
a(F317.0
F199.72727272727272
tp421
a(F311.90909090909093
F202.36363636363637
tp422
a(F314.90909090909093
F200.8181818181818
tp423
a(F316.45454545454544
F199.63636363636363
tp424
a(F317.72727272727275
F199.54545454545453
tp425
a(F316.8181818181818
F200.45454545454547
tp426
a(F317.27272727272725
F203.1818181818182
tp427
a(F313.8181818181818
F200.63636363636363
tp428
a(F313.72727272727275
F200.54545454545453
tp429
a(F314.8181818181818
F200.72727272727272
tp430
a(F317.1818181818182
F201.72727272727272
tp431
a(F315.3636363636364
F200.8181818181818
tp432
a(F314.0
F201.27272727272728
tp433
a(F317.1818181818182
F199.45454545454547
tp434
a(F315.90909090909093
F200.0
tp435
a(F312.90909090909093
F201.54545454545453
tp436
a(F311.72727272727275
F204.45454545454547
tp437
a(F317.27272727272725
F203.1818181818182
tp438
a(F314.90909090909093
F200.36363636363637
tp439
a(F281.27272727272725
F186.72727272727272
tp440
a(F313.54545454545456
F200.36363636363637
tp441
a(F310.72727272727275
F205.72727272727272
tp442
a(F313.3636363636364
F201.0909090909091
tp443
a(F319.27272727272725
F199.72727272727272
tp444
a(F317.3636363636364
F199.63636363636363
tp445
a(F268.72727272727275
F171.0
tp446
a(F317.90909090909093
F199.27272727272728
tp447
a(F312.0
F205.1818181818182
tp448
a(F315.0
F200.0
tp449
a(F315.0
F202.72727272727272
tp450
a(F314.3636363636364
F201.63636363636363
tp451
a(F313.3636363636364
F203.36363636363637
tp452
a(F313.90909090909093
F200.27272727272728
tp453
a(F312.90909090909093
F202.45454545454547
tp454
a(F312.0
F204.27272727272728
tp455
a(F314.09090909090907
F201.8181818181818
tp456
a(F313.54545454545456
F201.27272727272728
tp457
a(F318.54545454545456
F199.45454545454547
tp458
a(F316.27272727272725
F200.36363636363637
tp459
a(F315.45454545454544
F200.45454545454547
tp460
a(F316.0
F201.45454545454547
tp461
a(F316.72727272727275
F201.72727272727272
tp462
a(F312.45454545454544
F202.9090909090909
tp463
a(F315.72727272727275
F199.8181818181818
tp464
a(F317.3636363636364
F200.0909090909091
tp465
a(F312.27272727272725
F203.1818181818182
tp466
a(F315.72727272727275
F199.8181818181818
tp467
a(F317.1818181818182
F199.45454545454547
tp468
a(F316.27272727272725
F200.36363636363637
tp469
a(F317.45454545454544
F199.72727272727272
tp470
a(F315.6363636363636
F200.1818181818182
tp471
a(F316.6363636363636
F199.8181818181818
tp472
a(F316.90909090909093
F202.36363636363637
tp473
a(F314.6363636363636
F200.0909090909091
tp474
a(F315.54545454545456
F200.0909090909091
tp475
a(F317.09090909090907
F199.8181818181818
tp476
a(F314.3636363636364
F200.72727272727272
tp477
a(F314.72727272727275
F204.27272727272728
tp478
a(F312.54545454545456
F202.54545454545453
tp479
a(F319.3636363636364
F198.9090909090909
tp480
a(F313.6363636363636
F202.72727272727272
tp481
a(F316.72727272727275
F201.72727272727272
tp482
a(F313.6363636363636
F202.27272727272728
tp483
a(F317.90909090909093
F199.27272727272728
tp484
a(F315.3636363636364
F199.9090909090909
tp485
a(F311.54545454545456
F206.0909090909091
tp486
a(F320.8181818181818
F198.54545454545453
tp487
a(F316.54545454545456
F203.36363636363637
tp488
a(F313.72727272727275
F200.54545454545453
tp489
a(F316.3636363636364
F201.8181818181818
tp490
a(F314.27272727272725
F203.8181818181818
tp491
a(F315.3636363636364
F201.27272727272728
tp492
a(F317.3636363636364
F199.63636363636363
tp493
a(F318.0
F199.8181818181818
tp494
a(F315.09090909090907
F201.9090909090909
tp495
a(F314.90909090909093
F200.36363636363637
tp496
a(F314.6363636363636
F201.9090909090909
tp497
a(F314.54545454545456
F202.72727272727272
tp498
a(F315.27272727272725
F202.54545454545453
tp499
a(F315.3636363636364
F201.72727272727272
tp500
a(F315.1818181818182
F200.63636363636363
tp501
aa(lp502
(F227.27272727272728
F215.0
tp503
a(F236.0
F272.3636363636364
tp504
a(F188.9090909090909
F237.54545454545453
tp505
a(F213.0
F237.54545454545453
tp506
a(F261.27272727272725
F226.27272727272728
tp507
a(F261.27272727272725
F225.36363636363637
tp508
a(F256.45454545454544
F220.54545454545453
tp509
a(F240.72727272727272
F252.54545454545453
tp510
a(F248.8181818181818
F227.45454545454547
tp511
a(F222.72727272727272
F197.72727272727272
tp512
a(F244.54545454545453
F203.63636363636363
tp513
a(F258.72727272727275
F271.90909090909093
tp514
a(F264.6363636363636
F232.8181818181818
tp515
a(F283.3636363636364
F255.63636363636363
tp516
a(F241.45454545454547
F304.6363636363636
tp517
a(F208.9090909090909
F248.9090909090909
tp518
a(F230.27272727272728
F256.1818181818182
tp519
a(F244.0909090909091
F300.0
tp520
a(F240.27272727272728
F233.0
tp521
a(F177.8181818181818
F215.0909090909091
tp522
a(F222.0
F297.45454545454544
tp523
a(F251.1818181818182
F248.9090909090909
tp524
a(F262.54545454545456
F224.36363636363637
tp525
a(F231.63636363636363
F204.8181818181818
tp526
a(F249.8181818181818
F258.90909090909093
tp527
a(F219.27272727272728
F249.72727272727272
tp528
a(F227.0909090909091
F255.27272727272728
tp529
a(F253.8181818181818
F192.0
tp530
a(F261.8181818181818
F219.54545454545453
tp531
a(F201.54545454545453
F233.8181818181818
tp532
a(F197.72727272727272
F250.9090909090909
tp533
a(F225.36363636363637
F223.0909090909091
tp534
a(F230.54545454545453
F172.8181818181818
tp535
a(F270.0
F231.36363636363637
tp536
a(F248.63636363636363
F235.0
tp537
a(F264.72727272727275
F258.8181818181818
tp538
a(F267.3636363636364
F270.09090909090907
tp539
a(F278.72727272727275
F230.0909090909091
tp540
a(F248.0909090909091
F185.36363636363637
tp541
a(F220.72727272727272
F271.6363636363636
tp542
a(F234.45454545454547
F258.54545454545456
tp543
a(F234.9090909090909
F205.36363636363637
tp544
a(F269.45454545454544
F253.54545454545453
tp545
a(F261.1818181818182
F273.45454545454544
tp546
a(F272.1818181818182
F230.36363636363637
tp547
a(F221.36363636363637
F169.54545454545453
tp548
a(F256.90909090909093
F213.27272727272728
tp549
a(F266.09090909090907
F207.0
tp550
a(F248.0
F250.27272727272728
tp551
a(F237.72727272727272
F250.45454545454547
tp552
a(F257.72727272727275
F196.36363636363637
tp553
a(F233.72727272727272
F259.1818181818182
tp554
a(F170.8181818181818
F274.45454545454544
tp555
a(F258.27272727272725
F210.0909090909091
tp556
a(F250.9090909090909
F229.0909090909091
tp557
a(F260.09090909090907
F223.72727272727272
tp558
a(F230.8181818181818
F241.27272727272728
tp559
a(F237.45454545454547
F267.45454545454544
tp560
a(F219.1818181818182
F213.27272727272728
tp561
a(F229.36363636363637
F236.63636363636363
tp562
a(F258.45454545454544
F252.54545454545453
tp563
a(F234.0909090909091
F332.72727272727275
tp564
a(F253.72727272727272
F258.27272727272725
tp565
a(F254.27272727272728
F236.54545454545453
tp566
a(F223.1818181818182
F167.27272727272728
tp567
a(F255.27272727272728
F185.27272727272728
tp568
a(F254.36363636363637
F316.6363636363636
tp569
a(F268.54545454545456
F279.0
tp570
a(F249.36363636363637
F214.8181818181818
tp571
a(F207.1818181818182
F270.3636363636364
tp572
a(F246.54545454545453
F236.0909090909091
tp573
a(F233.0909090909091
F279.45454545454544
tp574
a(F234.54545454545453
F232.72727272727272
tp575
a(F231.27272727272728
F181.72727272727272
tp576
a(F283.3636363636364
F255.63636363636363
tp577
a(F241.54545454545453
F215.63636363636363
tp578
a(F270.0
F289.54545454545456
tp579
a(F236.63636363636363
F227.0909090909091
tp580
a(F245.63636363636363
F245.1818181818182
tp581
a(F221.0909090909091
F292.0
tp582
a(F267.72727272727275
F248.1818181818182
tp583
a(F243.72727272727272
F235.0909090909091
tp584
a(F228.36363636363637
F228.36363636363637
tp585
a(F269.8181818181818
F252.0909090909091
tp586
a(F255.9090909090909
F222.27272727272728
tp587
a(F256.54545454545456
F218.8181818181818
tp588
a(F220.9090909090909
F172.27272727272728
tp589
a(F231.27272727272728
F181.72727272727272
tp590
a(F229.45454545454547
F225.8181818181818
tp591
a(F244.63636363636363
F230.54545454545453
tp592
a(F258.54545454545456
F312.1818181818182
tp593
a(F201.63636363636363
F231.63636363636363
tp594
a(F243.9090909090909
F243.45454545454547
tp595
a(F223.63636363636363
F244.54545454545453
tp596
a(F208.0
F263.45454545454544
tp597
a(F249.63636363636363
F211.45454545454547
tp598
a(F272.09090909090907
F209.8181818181818
tp599
a(F253.54545454545453
F192.1818181818182
tp600
a(F248.45454545454547
F235.72727272727272
tp601
a(F239.0
F257.6363636363636
tp602
a(F256.0
F233.72727272727272
tp603
a(F268.1818181818182
F222.72727272727272
tp604
a(F215.8181818181818
F138.0909090909091
tp605
a(F261.3636363636364
F236.8181818181818
tp606
a(F261.1818181818182
F257.54545454545456
tp607
a(F272.72727272727275
F194.0909090909091
tp608
a(F231.0909090909091
F225.63636363636363
tp609
a(F243.36363636363637
F207.9090909090909
tp610
a(F243.36363636363637
F229.27272727272728
tp611
a(F238.54545454545453
F260.3636363636364
tp612
a(F194.8181818181818
F208.45454545454547
tp613
a(F246.54545454545453
F278.3636363636364
tp614
a(F221.8181818181818
F287.27272727272725
tp615
a(F254.1818181818182
F282.3636363636364
tp616
a(F250.54545454545453
F237.36363636363637
tp617
a(F212.9090909090909
F225.1818181818182
tp618
a(F233.8181818181818
F308.8181818181818
tp619
a(F216.1818181818182
F226.1818181818182
tp620
a(F243.0909090909091
F276.72727272727275
tp621
a(F237.1818181818182
F257.6363636363636
tp622
a(F249.0
F274.45454545454544
tp623
a(F247.45454545454547
F211.0909090909091
tp624
a(F203.9090909090909
F238.9090909090909
tp625
a(F229.1818181818182
F213.72727272727272
tp626
a(F270.1818181818182
F269.27272727272725
tp627
a(F257.3636363636364
F281.45454545454544
tp628
a(F231.54545454545453
F282.90909090909093
tp629
a(F220.27272727272728
F230.72727272727272
tp630
a(F237.45454545454547
F223.36363636363637
tp631
a(F257.45454545454544
F220.63636363636363
tp632
a(F242.63636363636363
F219.45454545454547
tp633
a(F229.0
F245.8181818181818
tp634
a(F211.36363636363637
F219.0909090909091
tp635
a(F262.90909090909093
F234.72727272727272
tp636
a(F256.8181818181818
F203.1818181818182
tp637
a(F249.45454545454547
F248.54545454545453
tp638
a(F288.6363636363636
F242.27272727272728
tp639
a(F257.54545454545456
F232.54545454545453
tp640
a(F236.0909090909091
F250.1818181818182
tp641
a(F226.0909090909091
F215.63636363636363
tp642
a(F236.0
F231.0
tp643
a(F191.63636363636363
F236.1818181818182
tp644
a(F260.6363636363636
F217.0
tp645
a(F272.1818181818182
F266.72727272727275
tp646
a(F260.45454545454544
F284.09090909090907
tp647
a(F264.45454545454544
F302.6363636363636
tp648
a(F254.0
F269.0
tp649
a(F237.72727272727272
F204.0909090909091
tp650
a(F226.0
F228.72727272727272
tp651
a(F271.09090909090907
F223.8181818181818
tp652
a(F260.09090909090907
F221.0
tp653
a(F211.0
F253.72727272727272
tp654
a(F282.6363636363636
F212.63636363636363
tp655
a(F224.63636363636363
F243.72727272727272
tp656
a(F236.36363636363637
F262.72727272727275
tp657
a(F229.27272727272728
F209.72727272727272
tp658
a(F259.0
F241.27272727272728
tp659
a(F234.0909090909091
F332.72727272727275
tp660
a(F216.63636363636363
F249.36363636363637
tp661
a(F231.54545454545453
F222.9090909090909
tp662
a(F223.0
F232.0909090909091
tp663
a(F239.36363636363637
F285.27272727272725
tp664
a(F234.0909090909091
F265.90909090909093
tp665
a(F257.45454545454544
F214.72727272727272
tp666
a(F232.9090909090909
F248.8181818181818
tp667
a(F278.6363636363636
F195.0
tp668
a(F240.9090909090909
F305.0
tp669
a(F198.63636363636363
F220.0
tp670
a(F270.8181818181818
F240.36363636363637
tp671
a(F263.72727272727275
F200.54545454545453
tp672
a(F227.9090909090909
F254.27272727272728
tp673
a(F255.72727272727272
F269.8181818181818
tp674
a(F223.72727272727272
F180.0909090909091
tp675
a(F262.09090909090907
F220.27272727272728
tp676
a(F260.27272727272725
F253.45454545454547
tp677
a(F231.8181818181818
F222.27272727272728
tp678
a(F229.36363636363637
F228.45454545454547
tp679
a(F270.90909090909093
F218.63636363636363
tp680
a(F264.8181818181818
F260.72727272727275
tp681
a(F275.8181818181818
F254.0
tp682
a(F207.8181818181818
F134.1818181818182
tp683
a(F257.0
F248.36363636363637
tp684
a(F261.27272727272725
F232.63636363636363
tp685
a(F202.54545454545453
F230.27272727272728
tp686
a(F242.9090909090909
F290.6363636363636
tp687
a(F237.9090909090909
F192.9090909090909
tp688
a(F258.54545454545456
F230.36363636363637
tp689
a(F258.54545454545456
F267.1818181818182
tp690
a(F268.27272727272725
F210.54545454545453
tp691
a(F286.09090909090907
F237.45454545454547
tp692
a(F227.54545454545453
F149.36363636363637
tp693
a(F188.8181818181818
F229.72727272727272
tp694
a(F225.27272727272728
F231.1818181818182
tp695
a(F223.36363636363637
F253.8181818181818
tp696
a(F215.72727272727272
F228.45454545454547
tp697
a(F235.27272727272728
F223.0
tp698
a(F260.0
F263.1818181818182
tp699
a(F247.9090909090909
F225.1818181818182
tp700
a(F254.27272727272728
F256.54545454545456
tp701
a(F271.0
F251.45454545454547
tp702
a(F266.09090909090907
F272.90909090909093
tp703
a(F277.1818181818182
F258.09090909090907
tp704
a(F259.3636363636364
F197.0909090909091
tp705
a(F240.0
F283.6363636363636
tp706
a(F213.72727272727272
F188.72727272727272
tp707
a(F187.1818181818182
F151.72727272727272
tp708
a(F270.6363636363636
F221.54545454545453
tp709
a(F264.72727272727275
F230.63636363636363
tp710
a(F280.3636363636364
F207.1818181818182
tp711
a(F272.27272727272725
F224.0909090909091
tp712
a(F253.36363636363637
F225.63636363636363
tp713
a(F220.0909090909091
F253.27272727272728
tp714
a(F250.0909090909091
F222.8181818181818
tp715
a(F229.54545454545453
F236.8181818181818
tp716
a(F265.72727272727275
F237.0909090909091
tp717
a(F224.63636363636363
F242.8181818181818
tp718
a(F232.9090909090909
F203.8181818181818
tp719
a(F220.72727272727272
F278.45454545454544
tp720
a(F290.72727272727275
F168.45454545454547
tp721
a(F208.54545454545453
F251.27272727272728
tp722
a(F211.0909090909091
F269.72727272727275
tp723
a(F232.36363636363637
F306.90909090909093
tp724
a(F221.0
F195.0909090909091
tp725
a(F244.0909090909091
F247.27272727272728
tp726
a(F239.45454545454547
F311.72727272727275
tp727
a(F207.0909090909091
F231.1818181818182
tp728
a(F242.9090909090909
F290.6363636363636
tp729
a(F244.63636363636363
F215.54545454545453
tp730
a(F186.72727272727272
F194.9090909090909
tp731
a(F269.8181818181818
F203.45454545454547
tp732
a(F241.36363636363637
F204.54545454545453
tp733
a(F162.8181818181818
F143.72727272727272
tp734
a(F271.45454545454544
F246.45454545454547
tp735
a(F214.0
F244.9090909090909
tp736
a(F243.8181818181818
F208.8181818181818
tp737
a(F237.9090909090909
F192.9090909090909
tp738
a(F223.27272727272728
F249.1818181818182
tp739
a(F209.63636363636363
F257.3636363636364
tp740
a(F246.8181818181818
F275.45454545454544
tp741
a(F229.54545454545453
F280.0
tp742
a(F273.09090909090907
F280.8181818181818
tp743
a(F236.0
F272.3636363636364
tp744
a(F151.72727272727272
F156.72727272727272
tp745
a(F257.8181818181818
F300.54545454545456
tp746
a(F262.54545454545456
F199.8181818181818
tp747
a(F254.0909090909091
F302.27272727272725
tp748
a(F230.9090909090909
F248.63636363636363
tp749
a(F234.45454545454547
F245.36363636363637
tp750
a(F214.0
F234.9090909090909
tp751
a(F217.8181818181818
F125.54545454545455
tp752
a(F254.8181818181818
F204.8181818181818
tp753
a(F226.1818181818182
F306.1818181818182
tp754
a(F258.45454545454544
F210.72727272727272
tp755
a(F199.36363636363637
F126.18181818181819
tp756
a(F253.8181818181818
F227.9090909090909
tp757
a(F240.0909090909091
F267.3636363636364
tp758
a(F265.0
F272.27272727272725
tp759
a(F235.63636363636363
F168.36363636363637
tp760
a(F258.72727272727275
F265.09090909090907
tp761
a(F192.45454545454547
F189.72727272727272
tp762
a(F258.90909090909093
F238.45454545454547
tp763
a(F227.45454545454547
F260.6363636363636
tp764
a(F226.63636363636363
F205.72727272727272
tp765
a(F232.8181818181818
F164.63636363636363
tp766
a(F249.72727272727272
F198.36363636363637
tp767
a(F230.1818181818182
F277.45454545454544
tp768
a(F265.27272727272725
F180.72727272727272
tp769
a(F236.1818181818182
F179.36363636363637
tp770
a(F206.54545454545453
F193.36363636363637
tp771
a(F235.9090909090909
F290.0
tp772
a(F275.45454545454544
F248.1818181818182
tp773
a(F240.0
F249.0909090909091
tp774
a(F199.0
F264.45454545454544
tp775
a(F199.36363636363637
F174.36363636363637
tp776
a(F254.8181818181818
F204.8181818181818
tp777
a(F213.72727272727272
F221.45454545454547
tp778
a(F237.45454545454547
F221.0909090909091
tp779
a(F264.45454545454544
F289.90909090909093
tp780
a(F234.1818181818182
F254.63636363636363
tp781
a(F200.8181818181818
F190.36363636363637
tp782
a(F254.0909090909091
F272.27272727272725
tp783
a(F266.1818181818182
F282.54545454545456
tp784
a(F260.27272727272725
F279.3636363636364
tp785
a(F230.0909090909091
F234.1818181818182
tp786
a(F244.1818181818182
F316.0
tp787
a(F253.72727272727272
F232.8181818181818
tp788
a(F246.54545454545453
F236.0909090909091
tp789
a(F233.63636363636363
F310.0
tp790
a(F283.3636363636364
F255.63636363636363
tp791
a(F214.27272727272728
F309.72727272727275
tp792
a(F246.54545454545453
F236.0909090909091
tp793
a(F253.27272727272728
F255.54545454545453
tp794
a(F290.72727272727275
F168.45454545454547
tp795
a(F234.8181818181818
F253.9090909090909
tp796
a(F234.36363636363637
F198.0
tp797
a(F240.54545454545453
F233.72727272727272
tp798
a(F239.0909090909091
F218.1818181818182
tp799
a(F243.72727272727272
F273.27272727272725
tp800
a(F244.54545454545453
F248.1818181818182
tp801
a(F257.09090909090907
F228.0
tp802
a(F248.0909090909091
F225.36363636363637
tp803
a(F221.0
F208.72727272727272
tp804
a(F226.0909090909091
F202.0
tp805
a(F268.3636363636364
F210.1818181818182
tp806
a(F222.1818181818182
F232.1818181818182
tp807
a(F190.27272727272728
F144.8181818181818
tp808
a(F235.36363636363637
F198.0909090909091
tp809
a(F228.72727272727272
F249.63636363636363
tp810
a(F226.1818181818182
F270.27272727272725
tp811
a(F257.3636363636364
F266.0
tp812
a(F237.1818181818182
F229.0
tp813
a(F263.3636363636364
F257.45454545454544
tp814
a(F243.0
F220.27272727272728
tp815
a(F225.1818181818182
F232.9090909090909
tp816
a(F247.0
F240.1818181818182
tp817
a(F257.09090909090907
F312.09090909090907
tp818
a(F224.8181818181818
F159.8181818181818
tp819
a(F235.72727272727272
F212.54545454545453
tp820
a(F252.1818181818182
F238.0909090909091
tp821
a(F216.9090909090909
F256.45454545454544
tp822
a(F261.90909090909093
F230.54545454545453
tp823
a(F208.0
F262.54545454545456
tp824
a(F239.36363636363637
F248.0
tp825
a(F274.45454545454544
F255.8181818181818
tp826
a(F225.0909090909091
F295.09090909090907
tp827
a(F175.45454545454547
F240.0
tp828
a(F240.27272727272728
F230.27272727272728
tp829
a(F219.72727272727272
F280.6363636363636
tp830
a(F232.72727272727272
F265.45454545454544
tp831
a(F249.27272727272728
F287.0
tp832
a(F226.54545454545453
F243.36363636363637
tp833
a(F268.45454545454544
F227.54545454545453
tp834
a(F251.1818181818182
F232.54545454545453
tp835
a(F183.27272727272728
F186.0
tp836
a(F241.0909090909091
F254.72727272727272
tp837
a(F213.27272727272728
F255.0909090909091
tp838
a(F223.27272727272728
F123.27272727272727
tp839
a(F191.36363636363637
F206.36363636363637
tp840
a(F245.54545454545453
F276.90909090909093
tp841
a(F268.54545454545456
F279.0
tp842
a(F254.45454545454547
F240.8181818181818
tp843
a(F249.36363636363637
F248.45454545454547
tp844
a(F269.27272727272725
F247.45454545454547
tp845
a(F274.6363636363636
F261.90909090909093
tp846
a(F211.0909090909091
F154.27272727272728
tp847
a(F176.9090909090909
F159.1818181818182
tp848
a(F252.9090909090909
F303.3636363636364
tp849
a(F268.72727272727275
F229.1818181818182
tp850
a(F277.45454545454544
F185.1818181818182
tp851
a(F267.3636363636364
F205.54545454545453
tp852
a(F250.8181818181818
F214.45454545454547
tp853
a(F248.72727272727272
F263.27272727272725
tp854
a(F264.3636363636364
F260.27272727272725
tp855
a(F241.45454545454547
F249.63636363636363
tp856
a(F246.9090909090909
F248.72727272727272
tp857
a(F259.45454545454544
F231.72727272727272
tp858
a(F222.45454545454547
F310.6363636363636
tp859
a(F257.09090909090907
F228.0
tp860
a(F198.0
F197.54545454545453
tp861
a(F260.1818181818182
F277.45454545454544
tp862
a(F258.1818181818182
F274.54545454545456
tp863
a(F254.8181818181818
F225.27272727272728
tp864
a(F235.36363636363637
F198.0909090909091
tp865
a(F232.63636363636363
F214.45454545454547
tp866
a(F251.0
F232.36363636363637
tp867
a(F202.1818181818182
F137.63636363636363
tp868
a(F241.1818181818182
F253.0
tp869
a(F253.1818181818182
F248.63636363636363
tp870
a(F237.63636363636363
F244.45454545454547
tp871
a(F221.36363636363637
F204.0909090909091
tp872
a(F237.8181818181818
F216.45454545454547
tp873
a(F205.72727272727272
F150.72727272727272
tp874
a(F240.8181818181818
F278.54545454545456
tp875
a(F255.54545454545453
F232.8181818181818
tp876
a(F265.27272727272725
F203.45454545454547
tp877
a(F223.54545454545453
F305.8181818181818
tp878
a(F262.27272727272725
F191.8181818181818
tp879
a(F224.0
F309.90909090909093
tp880
a(F258.54545454545456
F269.90909090909093
tp881
a(F203.63636363636363
F271.3636363636364
tp882
a(F250.63636363636363
F225.1818181818182
tp883
a(F205.8181818181818
F167.1818181818182
tp884
a(F250.9090909090909
F238.1818181818182
tp885
a(F226.9090909090909
F225.0909090909091
tp886
a(F177.0
F166.54545454545453
tp887
a(F246.54545454545453
F196.0909090909091
tp888
a(F217.1818181818182
F228.0909090909091
tp889
a(F225.72727272727272
F261.6363636363636
tp890
a(F291.6363636363636
F220.72727272727272
tp891
a(F248.72727272727272
F237.36363636363637
tp892
a(F206.0
F213.72727272727272
tp893
a(F268.54545454545456
F245.8181818181818
tp894
a(F260.6363636363636
F294.27272727272725
tp895
a(F272.6363636363636
F229.0
tp896
a(F240.36363636363637
F236.72727272727272
tp897
a(F222.0909090909091
F278.90909090909093
tp898
a(F231.63636363636363
F202.0909090909091
tp899
a(F232.36363636363637
F235.54545454545453
tp900
a(F237.45454545454547
F220.63636363636363
tp901
a(F235.9090909090909
F324.54545454545456
tp902
a(F213.72727272727272
F246.9090909090909
tp903
a(F237.72727272727272
F225.9090909090909
tp904
a(F199.0
F137.63636363636363
tp905
a(F233.0909090909091
F209.9090909090909
tp906
a(F170.9090909090909
F175.45454545454547
tp907
a(F256.27272727272725
F232.63636363636363
tp908
a(F248.45454545454547
F273.0
tp909
a(F246.1818181818182
F246.63636363636363
tp910
a(F253.63636363636363
F323.1818181818182
tp911
a(F256.45454545454544
F296.90909090909093
tp912
a(F238.0
F220.72727272727272
tp913
a(F271.0
F225.0909090909091
tp914
a(F227.45454545454547
F197.0
tp915
a(F260.0
F247.27272727272728
tp916
a(F239.36363636363637
F207.54545454545453
tp917
a(F278.72727272727275
F261.90909090909093
tp918
a(F222.9090909090909
F172.9090909090909
tp919
a(F260.90909090909093
F245.45454545454547
tp920
a(F251.54545454545453
F249.72727272727272
tp921
a(F255.63636363636363
F250.1818181818182
tp922
a(F249.45454545454547
F284.45454545454544
tp923
a(F230.63636363636363
F229.27272727272728
tp924
a(F258.6363636363636
F233.1818181818182
tp925
a(F261.54545454545456
F296.09090909090907
tp926
a(F249.72727272727272
F293.8181818181818
tp927
a(F249.1818181818182
F203.27272727272728
tp928
a(F250.9090909090909
F253.63636363636363
tp929
a(F254.0
F275.3636363636364
tp930
a(F221.54545454545453
F207.9090909090909
tp931
a(F219.54545454545453
F276.8181818181818
tp932
a(F227.8181818181818
F241.0
tp933
a(F215.36363636363637
F240.36363636363637
tp934
a(F234.72727272727272
F262.90909090909093
tp935
a(F248.54545454545453
F216.72727272727272
tp936
a(F237.0909090909091
F238.0
tp937
a(F242.9090909090909
F290.6363636363636
tp938
a(F227.9090909090909
F211.0909090909091
tp939
a(F228.8181818181818
F298.3636363636364
tp940
a(F229.27272727272728
F220.1818181818182
tp941
a(F244.54545454545453
F238.1818181818182
tp942
a(F250.72727272727272
F206.63636363636363
tp943
a(F236.45454545454547
F284.1818181818182
tp944
a(F248.72727272727272
F225.54545454545453
tp945
a(F258.8181818181818
F239.27272727272728
tp946
a(F232.54545454545453
F276.1818181818182
tp947
a(F260.54545454545456
F259.1818181818182
tp948
a(F247.8181818181818
F259.6363636363636
tp949
a(F194.27272727272728
F227.45454545454547
tp950
a(F242.63636363636363
F169.9090909090909
tp951
a(F246.8181818181818
F165.45454545454547
tp952
a(F244.54545454545453
F248.1818181818182
tp953
a(F255.27272727272728
F275.72727272727275
tp954
a(F249.36363636363637
F254.8181818181818
tp955
a(F249.63636363636363
F269.6363636363636
tp956
a(F270.27272727272725
F230.72727272727272
tp957
a(F226.8181818181818
F215.0
tp958
a(F265.90909090909093
F205.45454545454547
tp959
a(F273.1818181818182
F266.3636363636364
tp960
a(F279.1818181818182
F196.9090909090909
tp961
a(F204.72727272727272
F227.45454545454547
tp962
a(F253.54545454545453
F266.27272727272725
tp963
a(F249.45454545454547
F252.1818181818182
tp964
a(F255.0
F322.27272727272725
tp965
a(F281.09090909090907
F256.09090909090907
tp966
a(F235.0
F206.8181818181818
tp967
a(F244.36363636363637
F275.72727272727275
tp968
a(F235.63636363636363
F259.72727272727275
tp969
a(F232.9090909090909
F232.45454545454547
tp970
a(F239.8181818181818
F219.36363636363637
tp971
a(F237.0909090909091
F233.9090909090909
tp972
a(F195.45454545454547
F151.36363636363637
tp973
a(F238.27272727272728
F230.0909090909091
tp974
a(F239.0
F261.27272727272725
tp975
a(F177.45454545454547
F210.1818181818182
tp976
a(F254.72727272727272
F211.54545454545453
tp977
a(F226.9090909090909
F250.54545454545453
tp978
a(F255.72727272727272
F203.45454545454547
tp979
a(F217.54545454545453
F218.9090909090909
tp980
a(F235.36363636363637
F198.0909090909091
tp981
a(F260.27272727272725
F253.45454545454547
tp982
a(F228.8181818181818
F298.3636363636364
tp983
a(F234.45454545454547
F257.1818181818182
tp984
a(F238.54545454545453
F224.45454545454547
tp985
a(F258.27272727272725
F213.27272727272728
tp986
a(F274.45454545454544
F255.8181818181818
tp987
a(F210.54545454545453
F275.54545454545456
tp988
a(F218.72727272727272
F156.9090909090909
tp989
a(F213.36363636363637
F229.72727272727272
tp990
a(F251.9090909090909
F300.09090909090907
tp991
a(F243.45454545454547
F273.0
tp992
a(F235.72727272727272
F212.54545454545453
tp993
a(F283.3636363636364
F255.63636363636363
tp994
a(F206.63636363636363
F219.8181818181818
tp995
a(F270.8181818181818
F202.63636363636363
tp996
a(F233.9090909090909
F228.45454545454547
tp997
a(F260.27272727272725
F253.45454545454547
tp998
a(F231.54545454545453
F238.36363636363637
tp999
a(F268.0
F225.27272727272728
tp1000
a(F268.54545454545456
F279.0
tp1001
a(F255.1818181818182
F181.0909090909091
tp1002
aa.