(lp0
(lp1
F236.45151515151514
aF256.09393939393937
aF260.1469696969696
aF267.6560606060606
aF272.30757575757576
aF274.6666666666667
aF273.80757575757576
aF277.7212121212122
aF282.40606060606063
aF277.6484848484848
aF284.1
aF285.26060606060605
aF290.0257575757576
aF291.41969696969693
aF293.23181818181826
aF292.18030303030304
aF294.4045454545454
aF295.1939393939394
aF294.14242424242417
aF301.00151515151515
aF300.1
aF306.66363636363633
aF306.72424242424245
aF306.20909090909095
aF305.3909090909092
aF306.4757575757576
aF306.469696969697
aF307.01515151515156
aF307.659090909091
aF306.4712121212122
aF306.73030303030305
aF307.3090909090909
aF307.46060606060615
aF306.60606060606074
aF306.919696969697
aF307.45757575757574
aF304.97878787878784
aF307.31818181818187
aF306.95454545454544
aF308.12272727272733
aF306.50606060606054
aF307.2424242424242
aF306.37727272727267
aF304.99696969696976
aF306.40909090909093
aF307.4621212121213
aF307.6787878787879
aF306.7848484848485
aF305.65
aF306.1045454545454
aF307.19393939393933
aF307.5075757575758
aF307.68030303030315
aF306.60757575757594
aF306.53333333333325
aF306.1060606060607
aF307.1030303030304
aF307.330303030303
aF307.2030303030303
aF307.2954545454544
aF307.24848484848485
aF306.95454545454555
aF306.8454545454545
aF307.2818181818181
aF307.5045454545454
aF307.0121212121212
aF307.2121212121212
aF304.139393939394
aF306.23030303030305
aF307.26212121212126
aF305.24696969696976
aF306.5621212121213
aF305.4318181818182
aF307.2424242424242
aF305.94242424242435
aF307.23030303030305
aF303.2924242424242
aF307.1848484848485
aF306.33939393939403
aF307.4181818181817
aF307.51969696969695
aF306.46060606060604
aF306.44545454545465
aF308.1984848484848
aF307.3500000000001
aF306.99999999999994
aF305.789393939394
aF307.05151515151516
aF306.33484848484846
aF306.74696969696964
aF305.54999999999995
aF307.93787878787873
aF307.17575757575753
aF307.6090909090909
aF307.90909090909093
aF305.5878787878788
aF306.6227272727273
aF307.1545454545455
aF307.3651515151515
aF306.97424242424245
aF307.01212121212114
aF306.72121212121215
aF307.22878787878784
aF306.21515151515166
aF306.90454545454554
aF306.8999999999999
aF305.3909090909091
aF307.4393939393939
aF307.42121212121214
aF306.45303030303035
aF307.4984848484848
aF307.260606060606
aF306.93333333333334
aF308.00606060606054
aF307.02272727272725
aF307.4681818181818
aF306.54999999999995
aF305.1787878787879
aF305.8772727272728
aF305.9212121212121
aF305.87575757575746
aF306.269696969697
aF307.2969696969697
aF305.8409090909091
aF306.9363636363636
aF307.2848484848485
aF307.4712121212121
aF307.37121212121207
aF306.60909090909087
aF307.2909090909091
aF307.50454545454545
aF306.53636363636366
aF307.6469696969697
aF306.9454545454546
aF307.3590909090909
aF307.2151515151516
aF307.57727272727277
aF306.5878787878788
aF306.42424242424244
aF307.75909090909096
aF307.18030303030304
aF306.0560606060607
aF306.99696969696964
aF307.33030303030307
aF306.5424242424243
aF305.80909090909097
aF306.8212121212121
aF306.57272727272743
aF306.9924242424242
aF305.6
aF305.1833333333334
aF306.78181818181815
aF307.8378787878789
aF306.59696969696955
aF307.33787878787865
aF307.6727272727273
aF307.12878787878793
aF306.55151515151516
aF307.019696969697
aF307.02121212121205
aF304.8969696969697
aF307.02424242424235
aF307.09393939393937
aF304.2621212121211
aF307.29393939393947
aF307.46060606060615
aF305.8909090909091
aF307.07575757575745
aF306.6924242424242
aF306.32727272727266
aF307.3772727272727
aF306.9075757575758
aF306.3560606060607
aF305.4636363636364
aF307.68484848484854
aF307.34848484848493
aF307.72727272727275
aF306.9272727272728
aF305.6136363636364
aF307.28939393939385
aF305.8909090909091
aF307.81060606060606
aF307.6303030303031
aF307.57727272727266
aF306.53333333333325
aF306.3090909090909
aF307.509090909091
aF307.1469696969698
aF307.6257575757575
aF306.7393939393939
aF306.88636363636357
aF306.9287878787879
aF307.6030303030304
aF307.20909090909095
aF305.77121212121216
aF306.0242424242424
aF303.59242424242433
aF307.70757575757574
aF307.4575757575757
aF307.3333333333333
aF307.0454545454546
aF306.63333333333327
aF306.92727272727274
aF306.5348484848485
aF306.8772727272728
aF307.0939393939395
aF306.79393939393935
aF307.1651515151516
aF306.1272727272728
aF307.33636363636356
aF307.3469696969697
aF306.96969696969694
aF307.3651515151516
aF305.5439393939395
aF306.0363636363637
aF307.3439393939394
aF304.5772727272727
aF305.7287878787877
aF307.5560606060606
aF308.1136363636364
aF306.8393939393939
aF305.77121212121216
aF304.87272727272716
aF304.4984848484848
aF305.5121212121213
aF307.27424242424235
aF307.1469696969696
aF306.92121212121225
aF307.280303030303
aF307.2636363636364
aF307.77424242424246
aF306.8757575757576
aF307.33333333333326
aF307.0575757575759
aF308.2848484848485
aF306.49090909090904
aF307.05606060606067
aF306.4287878787879
aF306.98636363636365
aF307.32878787878786
aF306.06818181818187
aF307.6757575757577
aF306.28787878787875
aF306.71212121212113
aF306.7560606060606
aF307.27424242424235
aF306.91060606060614
aF306.82727272727277
aF305.9151515151515
aF306.7257575757575
aF306.3393939393939
aF307.01666666666654
aF306.9833333333334
aF306.87272727272733
aF306.64696969696973
aF307.8621212121213
aF307.3772727272727
aF304.9045454545454
aF307.1469696969698
aF304.72272727272735
aF307.3696969696969
aF307.0878787878788
aF306.95
aF307.54696969696977
aF307.3984848484849
aF307.18333333333334
aF305.5590909090909
aF306.9075757575758
aF307.2287878787878
aF305.7454545454545
aF306.4772727272728
aF307.4151515151515
aF307.4106060606061
aF306.4575757575757
aF306.1136363636364
aF307.29242424242426
aF307.4454545454547
aF307.52272727272737
aF306.140909090909
aF306.29242424242426
aF307.02575757575755
aF307.3363636363637
aF306.65909090909076
aF306.089393939394
aF306.2757575757576
aF306.56969696969696
aF307.0303030303031
aF307.6575757575757
aF306.9424242424242
aF306.7060606060606
aF307.3257575757577
aF308.26515151515156
aF308.25909090909084
aF306.69848484848484
aF307.53636363636366
aF307.68939393939394
aF307.97121212121203
aF305.9681818181817
aF307.189393939394
aF306.0257575757576
aF305.6484848484849
aF305.35000000000014
aF307.47121212121215
aF307.6439393939394
aF307.13484848484853
aF306.7
aF307.52727272727276
aF307.28181818181815
aF307.2348484848484
aF307.4939393939393
aF308.71060606060587
aF306.67121212121214
aF304.97424242424256
aF307.1454545454546
aF307.1378787878787
aF306.92575757575753
aF306.0772727272728
aF305.55
aF307.0969696969697
aF307.9787878787878
aF307.71515151515143
aF307.4590909090908
aF306.71060606060604
aF306.6
aF307.1424242424242
aF307.530303030303
aF306.9575757575758
aF306.13181818181823
aF306.1318181818181
aF306.40909090909093
aF306.93030303030304
aF305.56060606060606
aF307.04696969696977
aF307.03333333333336
aF305.73787878787886
aF307.330303030303
aF307.1575757575758
aF307.58333333333337
aF306.06060606060606
aF307.0560606060606
aF306.8545454545455
aF306.7742424242424
aF307.16969696969704
aF306.2636363636364
aF306.069696969697
aF306.24696969696964
aF306.4530303030303
aF307.6015151515152
aF305.71212121212125
aF305.01515151515156
aF307.0257575757576
aF305.9318181818182
aF306.97878787878784
aF305.7651515151514
aF307.57575757575756
aF306.03181818181815
aF305.8909090909091
aF306.83030303030307
aF307.0757575757576
aF306.4939393939394
aF306.29242424242426
aF307.3257575757576
aF306.8893939393939
aF306.34393939393937
aF307.0348484848484
aF307.35757575757566
aF306.9106060606062
aF306.60606060606045
aF304.87121212121224
aF305.28181818181815
aF307.1969696969698
aF307.0575757575758
aF307.219696969697
aF306.06363636363653
aF306.6348484848485
aF307.70454545454555
aF307.44848484848495
aF306.31515151515146
aF306.59848484848493
aF307.29090909090917
aF307.1469696969698
aF306.7363636363637
aF307.090909090909
aF307.1333333333334
aF306.4954545454546
aF306.75151515151515
aF307.08484848484846
aF307.0045454545454
aF307.0969696969697
aF307.5666666666667
aF307.2515151515152
aF306.05151515151516
aF306.9939393939394
aF307.5181818181818
aF307.03636363636355
aF306.45303030303035
aF306.6469696969697
aF306.8030303030303
aF307.5939393939395
aF306.75303030303047
aF306.6666666666667
aF306.8333333333333
aF306.15454545454554
aF306.3727272727273
aF306.6484848484848
aF304.4439393939395
aF305.2469696969696
aF306.3106060606061
aF307.110606060606
aF307.01363636363635
aF307.0833333333333
aF306.9318181818182
aF307.1712121212121
aF305.2984848484848
aF306.3575757575757
aF306.7121212121212
aF307.3772727272727
aF305.80757575757565
aF306.50000000000006
aF307.1287878787879
aF306.79090909090917
aF307.52424242424246
aF307.5621212121211
aF305.31212121212116
aF307.73484848484856
aF305.32575757575756
aF305.94393939393933
aF306.2666666666667
aF306.53030303030306
aF306.68787878787884
aF307.22727272727263
aF306.7651515151514
aF305.1606060606061
aF307.6818181818182
aF307.8484848484848
aF306.70606060606053
aF307.3515151515152
aF307.939393939394
aF307.65757575757567
aF307.16060606060597
aF307.68181818181813
aF307.8318181818182
aF306.7681818181818
aF306.2
aF306.6606060606061
aF307.4136363636364
aF305.2272727272728
aF306.8333333333334
aF307.0727272727274
aF305.4651515151515
aF305.9015151515151
aF307.2424242424242
aF305.35303030303027
aF307.8136363636365
aF306.94242424242424
aF306.73333333333346
aF307.4772727272728
aF306.41666666666674
aF306.9621212121212
aF307.2666666666666
aF306.4606060606059
aF307.23787878787874
aF305.95606060606053
aF306.7666666666667
aF305.87575757575763
aF306.8893939393939
aF306.75303030303036
aF305.72424242424245
aF307.52575757575755
aF306.13030303030297
aF306.8363636363636
aF306.9348484848485
aF307.25909090909084
aF303.73181818181814
aF307.18787878787873
aF307.1181818181818
aF307.4999999999999
aF306.32878787878786
aF307.0030303030302
aF307.5954545454545
aF306.16515151515154
aF307.02878787878774
aF307.07727272727266
aF307.3621212121212
aF305.9227272727273
aF307.3424242424243
aF306.6015151515151
aF307.24393939393934
aF306.4409090909091
aF307.4121212121212
aF307.08484848484846
aF307.23181818181826
aF305.94696969696975
aF306.50606060606066
aF306.94848484848495
aF306.47272727272724
aF305.84999999999997
aF306.3287878787879
aF306.0545454545454
aF306.5984848484849
aa(lp2
F172.63636363636363
aF203.8181818181818
aF213.54545454545453
aF196.9090909090909
aF225.72727272727272
aF227.45454545454547
aF231.63636363636363
aF231.45454545454547
aF245.0
aF195.1818181818182
aF237.72727272727272
aF222.54545454545453
aF231.36363636363637
aF239.0
aF248.63636363636363
aF224.8181818181818
aF242.54545454545453
aF212.0909090909091
aF235.9090909090909
aF267.1818181818182
aF215.0
aF301.8181818181818
aF301.45454545454544
aF300.72727272727275
aF244.54545454545453
aF300.90909090909093
aF291.3636363636364
aF302.8181818181818
aF302.09090909090907
aF249.0909090909091
aF299.0
aF301.6363636363636
aF301.45454545454544
aF281.6363636363636
aF270.09090909090907
aF300.0
aF237.63636363636363
aF301.8181818181818
aF300.27272727272725
aF302.1818181818182
aF253.1818181818182
aF301.8181818181818
aF300.0
aF236.0909090909091
aF274.1818181818182
aF301.8181818181818
aF301.45454545454544
aF277.3636363636364
aF244.27272727272728
aF234.0
aF303.3636363636364
aF302.1818181818182
aF301.90909090909093
aF292.1818181818182
aF282.45454545454544
aF246.45454545454547
aF271.6363636363636
aF301.54545454545456
aF288.8181818181818
aF301.45454545454544
aF269.72727272727275
aF298.09090909090907
aF301.0
aF301.6363636363636
aF301.1818181818182
aF301.8181818181818
aF299.8181818181818
aF216.72727272727272
aF249.0909090909091
aF301.0
aF206.36363636363637
aF291.3636363636364
aF240.9090909090909
aF301.27272727272725
aF235.27272727272728
aF302.8181818181818
aF203.36363636363637
aF300.0
aF249.0909090909091
aF301.3636363636364
aF301.54545454545456
aF277.8181818181818
aF265.0
aF299.72727272727275
aF301.3636363636364
aF279.8181818181818
aF269.54545454545456
aF300.6363636363636
aF251.0909090909091
aF269.90909090909093
aF215.27272727272728
aF301.72727272727275
aF302.09090909090907
aF301.90909090909093
aF301.09090909090907
aF242.45454545454547
aF286.72727272727275
aF300.6363636363636
aF301.27272727272725
aF299.09090909090907
aF287.27272727272725
aF301.72727272727275
aF302.45454545454544
aF255.27272727272728
aF301.90909090909093
aF301.6363636363636
aF237.63636363636363
aF292.6363636363636
aF301.3636363636364
aF269.1818181818182
aF301.54545454545456
aF297.8181818181818
aF301.8181818181818
aF302.0
aF300.27272727272725
aF299.54545454545456
aF260.1818181818182
aF227.9090909090909
aF243.54545454545453
aF246.8181818181818
aF231.45454545454547
aF250.54545454545453
aF300.6363636363636
aF250.27272727272728
aF302.27272727272725
aF299.72727272727275
aF302.90909090909093
aF301.09090909090907
aF264.0
aF301.0
aF297.8181818181818
aF234.8181818181818
aF301.09090909090907
aF300.45454545454544
aF300.6363636363636
aF291.1818181818182
aF300.8181818181818
aF287.6363636363636
aF249.27272727272728
aF301.3636363636364
aF302.0
aF222.63636363636363
aF301.6363636363636
aF283.3636363636364
aF272.54545454545456
aF251.0909090909091
aF266.45454545454544
aF266.1818181818182
aF301.90909090909093
aF217.8181818181818
aF243.0
aF301.3636363636364
aF302.27272727272725
aF301.09090909090907
aF301.6363636363636
aF301.90909090909093
aF299.6363636363636
aF296.72727272727275
aF301.6363636363636
aF299.45454545454544
aF229.9090909090909
aF294.8181818181818
aF301.6363636363636
aF221.72727272727272
aF301.6363636363636
aF293.27272727272725
aF233.27272727272728
aF301.3636363636364
aF300.1818181818182
aF242.9090909090909
aF300.45454545454544
aF278.0
aF227.1818181818182
aF227.54545454545453
aF301.09090909090907
aF286.54545454545456
aF290.1818181818182
aF299.1818181818182
aF249.0909090909091
aF300.90909090909093
aF217.36363636363637
aF302.09090909090907
aF302.09090909090907
aF300.72727272727275
aF243.72727272727272
aF250.72727272727272
aF301.3636363636364
aF299.0
aF301.72727272727275
aF301.3636363636364
aF302.1818181818182
aF299.8181818181818
aF299.72727272727275
aF300.1818181818182
aF224.54545454545453
aF269.0
aF213.36363636363637
aF301.6363636363636
aF299.1818181818182
aF301.09090909090907
aF301.8181818181818
aF275.72727272727275
aF299.1818181818182
aF270.8181818181818
aF299.0
aF302.27272727272725
aF301.1818181818182
aF301.27272727272725
aF271.45454545454544
aF298.8181818181818
aF298.54545454545456
aF299.54545454545456
aF299.45454545454544
aF254.45454545454547
aF277.8181818181818
aF302.27272727272725
aF242.9090909090909
aF243.0909090909091
aF296.1818181818182
aF302.90909090909093
aF301.09090909090907
aF237.45454545454547
aF243.0909090909091
aF237.72727272727272
aF212.63636363636363
aF302.27272727272725
aF301.6363636363636
aF301.3636363636364
aF300.45454545454544
aF301.09090909090907
aF298.72727272727275
aF299.90909090909093
aF288.45454545454544
aF300.90909090909093
aF298.8181818181818
aF285.09090909090907
aF303.09090909090907
aF295.6363636363636
aF303.27272727272725
aF299.90909090909093
aF229.8181818181818
aF268.54545454545456
aF301.09090909090907
aF278.54545454545456
aF284.09090909090907
aF293.54545454545456
aF295.45454545454544
aF268.09090909090907
aF247.0909090909091
aF301.1818181818182
aF296.09090909090907
aF301.45454545454544
aF302.0
aF302.6363636363636
aF274.45454545454544
aF302.54545454545456
aF299.27272727272725
aF241.36363636363637
aF299.0
aF192.54545454545453
aF302.09090909090907
aF300.1818181818182
aF302.09090909090907
aF301.6363636363636
aF300.45454545454544
aF301.54545454545456
aF231.45454545454547
aF300.09090909090907
aF301.45454545454544
aF225.72727272727272
aF262.90909090909093
aF302.6363636363636
aF301.6363636363636
aF300.90909090909093
aF280.27272727272725
aF301.3636363636364
aF301.09090909090907
aF302.0
aF229.0
aF290.3636363636364
aF300.3636363636364
aF300.72727272727275
aF302.27272727272725
aF291.72727272727275
aF280.72727272727275
aF288.90909090909093
aF301.8181818181818
aF302.45454545454544
aF301.54545454545456
aF269.0
aF275.54545454545456
aF302.72727272727275
aF302.54545454545456
aF236.36363636363637
aF302.1818181818182
aF293.72727272727275
aF300.09090909090907
aF215.72727272727272
aF302.54545454545456
aF232.27272727272728
aF242.0909090909091
aF236.36363636363637
aF303.09090909090907
aF301.1818181818182
aF301.6363636363636
aF272.09090909090907
aF301.90909090909093
aF275.27272727272725
aF296.27272727272725
aF292.72727272727275
aF301.8181818181818
aF278.72727272727275
aF244.27272727272728
aF288.1818181818182
aF302.90909090909093
aF300.6363636363636
aF243.54545454545453
aF228.0
aF271.3636363636364
aF301.09090909090907
aF302.3636363636364
aF297.54545454545456
aF300.90909090909093
aF262.27272727272725
aF297.27272727272725
aF302.54545454545456
aF281.54545454545456
aF290.0
aF286.72727272727275
aF300.8181818181818
aF301.54545454545456
aF244.0909090909091
aF301.8181818181818
aF300.27272727272725
aF240.36363636363637
aF303.09090909090907
aF301.90909090909093
aF303.0
aF271.27272727272725
aF300.8181818181818
aF299.27272727272725
aF300.8181818181818
aF300.45454545454544
aF242.36363636363637
aF244.36363636363637
aF269.09090909090907
aF250.1818181818182
aF301.09090909090907
aF215.8181818181818
aF208.1818181818182
aF301.90909090909093
aF258.72727272727275
aF303.0
aF243.36363636363637
aF302.54545454545456
aF235.45454545454547
aF247.9090909090909
aF280.27272727272725
aF273.27272727272725
aF244.1818181818182
aF228.9090909090909
aF301.72727272727275
aF289.09090909090907
aF255.36363636363637
aF301.8181818181818
aF301.09090909090907
aF303.0
aF301.27272727272725
aF230.9090909090909
aF244.0909090909091
aF301.6363636363636
aF301.27272727272725
aF302.45454545454544
aF245.27272727272728
aF301.45454545454544
aF303.1818181818182
aF288.8181818181818
aF280.1818181818182
aF237.63636363636363
aF300.45454545454544
aF288.72727272727275
aF291.90909090909093
aF301.0
aF301.3636363636364
aF296.6363636363636
aF299.72727272727275
aF301.1818181818182
aF302.6363636363636
aF302.09090909090907
aF301.72727272727275
aF286.6363636363636
aF262.3636363636364
aF294.27272727272725
aF302.45454545454544
aF300.54545454545456
aF241.45454545454547
aF287.3636363636364
aF280.27272727272725
aF301.54545454545456
aF288.3636363636364
aF302.09090909090907
aF300.90909090909093
aF248.8181818181818
aF300.72727272727275
aF299.6363636363636
aF225.9090909090909
aF226.45454545454547
aF300.1818181818182
aF300.8181818181818
aF302.72727272727275
aF299.90909090909093
aF264.27272727272725
aF301.90909090909093
aF243.1818181818182
aF242.1818181818182
aF246.1818181818182
aF300.3636363636364
aF240.1818181818182
aF270.54545454545456
aF300.54545454545456
aF274.45454545454544
aF301.27272727272725
aF300.45454545454544
aF243.1818181818182
aF301.3636363636364
aF249.27272727272728
aF243.54545454545453
aF288.72727272727275
aF286.09090909090907
aF282.6363636363636
aF301.1818181818182
aF298.0
aF230.0909090909091
aF301.8181818181818
aF300.45454545454544
aF300.6363636363636
aF284.3636363636364
aF302.09090909090907
aF299.27272727272725
aF300.90909090909093
aF299.8181818181818
aF301.3636363636364
aF301.6363636363636
aF254.9090909090909
aF301.54545454545456
aF302.27272727272725
aF232.0
aF291.45454545454544
aF301.1818181818182
aF221.72727272727272
aF233.54545454545453
aF301.27272727272725
aF270.54545454545456
aF301.45454545454544
aF299.54545454545456
aF301.3636363636364
aF301.54545454545456
aF245.8181818181818
aF242.36363636363637
aF295.8181818181818
aF287.90909090909093
aF301.45454545454544
aF248.8181818181818
aF300.72727272727275
aF300.1818181818182
aF275.54545454545456
aF277.8181818181818
aF234.0909090909091
aF303.0
aF260.09090909090907
aF301.0
aF299.90909090909093
aF302.3636363636364
aF202.27272727272728
aF300.3636363636364
aF301.0
aF301.72727272727275
aF281.45454545454544
aF298.72727272727275
aF301.90909090909093
aF267.72727272727275
aF302.1818181818182
aF300.72727272727275
aF302.72727272727275
aF272.1818181818182
aF300.3636363636364
aF298.0
aF302.27272727272725
aF230.36363636363637
aF301.3636363636364
aF299.8181818181818
aF299.1818181818182
aF262.6363636363636
aF279.1818181818182
aF301.90909090909093
aF300.45454545454544
aF236.27272727272728
aF286.45454545454544
aF244.0909090909091
aF287.1818181818182
aa(lp3
F284.0
aF284.0
aF285.0
aF283.6363636363636
aF287.1818181818182
aF293.8181818181818
aF294.45454545454544
aF295.8181818181818
aF299.0
aF299.0
aF303.45454545454544
aF303.45454545454544
aF303.45454545454544
aF304.1818181818182
aF309.45454545454544
aF308.90909090909093
aF308.90909090909093
aF307.8181818181818
aF310.45454545454544
aF310.45454545454544
aF310.27272727272725
aF312.1818181818182
aF310.8181818181818
aF310.8181818181818
aF310.45454545454544
aF311.3636363636364
aF311.3636363636364
aF312.09090909090907
aF314.0
aF314.0
aF312.09090909090907
aF312.90909090909093
aF312.90909090909093
aF311.8181818181818
aF312.6363636363636
aF312.6363636363636
aF312.45454545454544
aF311.6363636363636
aF311.72727272727275
aF313.09090909090907
aF311.72727272727275
aF313.45454545454544
aF311.54545454545456
aF313.27272727272725
aF312.54545454545456
aF312.6363636363636
aF312.72727272727275
aF311.54545454545456
aF311.72727272727275
aF312.0
aF312.0
aF313.72727272727275
aF313.72727272727275
aF312.8181818181818
aF312.8181818181818
aF313.45454545454544
aF313.45454545454544
aF313.45454545454544
aF313.45454545454544
aF313.45454545454544
aF313.45454545454544
aF313.45454545454544
aF313.45454545454544
aF313.45454545454544
aF313.45454545454544
aF313.45454545454544
aF312.45454545454544
aF311.8181818181818
aF311.3636363636364
aF311.3636363636364
aF311.8181818181818
aF312.1818181818182
aF310.45454545454544
aF310.45454545454544
aF312.27272727272725
aF312.27272727272725
aF310.27272727272725
aF312.1818181818182
aF312.1818181818182
aF312.3636363636364
aF312.90909090909093
aF314.3636363636364
aF314.1818181818182
aF314.1818181818182
aF314.1818181818182
aF313.09090909090907
aF313.09090909090907
aF313.09090909090907
aF313.09090909090907
aF313.09090909090907
aF311.90909090909093
aF313.45454545454544
aF313.45454545454544
aF313.45454545454544
aF313.3636363636364
aF311.90909090909093
aF311.90909090909093
aF312.09090909090907
aF312.27272727272725
aF314.27272727272725
aF314.27272727272725
aF312.3636363636364
aF312.3636363636364
aF312.3636363636364
aF312.45454545454544
aF312.72727272727275
aF312.72727272727275
aF312.8181818181818
aF313.54545454545456
aF313.54545454545456
aF313.54545454545456
aF313.54545454545456
aF313.54545454545456
aF311.90909090909093
aF311.90909090909093
aF313.1818181818182
aF313.1818181818182
aF313.1818181818182
aF313.1818181818182
aF313.1818181818182
aF313.1818181818182
aF312.27272727272725
aF312.27272727272725
aF312.09090909090907
aF312.09090909090907
aF312.09090909090907
aF313.3636363636364
aF312.72727272727275
aF313.54545454545456
aF312.1818181818182
aF312.1818181818182
aF314.45454545454544
aF313.0
aF313.0
aF311.8181818181818
aF312.0
aF312.0
aF313.27272727272725
aF313.27272727272725
aF311.72727272727275
aF313.27272727272725
aF313.27272727272725
aF313.27272727272725
aF313.27272727272725
aF313.27272727272725
aF313.27272727272725
aF313.27272727272725
aF313.27272727272725
aF313.0
aF312.45454545454544
aF311.54545454545456
aF311.8181818181818
aF311.8181818181818
aF310.8181818181818
aF311.09090909090907
aF311.27272727272725
aF311.27272727272725
aF311.09090909090907
aF311.09090909090907
aF312.8181818181818
aF312.8181818181818
aF311.8181818181818
aF311.1818181818182
aF312.0
aF313.3636363636364
aF313.3636363636364
aF313.3636363636364
aF313.3636363636364
aF312.8181818181818
aF312.8181818181818
aF312.45454545454544
aF312.45454545454544
aF313.45454545454544
aF313.09090909090907
aF313.09090909090907
aF313.09090909090907
aF313.09090909090907
aF314.45454545454544
aF314.45454545454544
aF313.09090909090907
aF313.09090909090907
aF314.1818181818182
aF312.8181818181818
aF312.8181818181818
aF312.8181818181818
aF312.8181818181818
aF312.8181818181818
aF311.90909090909093
aF311.90909090909093
aF312.09090909090907
aF313.27272727272725
aF313.27272727272725
aF313.27272727272725
aF314.09090909090907
aF314.09090909090907
aF314.09090909090907
aF313.3636363636364
aF313.3636363636364
aF313.3636363636364
aF313.3636363636364
aF313.3636363636364
aF313.3636363636364
aF311.90909090909093
aF310.8181818181818
aF311.8181818181818
aF312.1818181818182
aF312.1818181818182
aF311.27272727272725
aF311.6363636363636
aF311.6363636363636
aF311.8181818181818
aF311.6363636363636
aF312.1818181818182
aF312.1818181818182
aF312.1818181818182
aF312.1818181818182
aF312.8181818181818
aF313.6363636363636
aF313.6363636363636
aF313.6363636363636
aF313.6363636363636
aF311.54545454545456
aF311.54545454545456
aF311.54545454545456
aF311.54545454545456
aF312.09090909090907
aF312.09090909090907
aF311.54545454545456
aF311.54545454545456
aF314.54545454545456
aF314.54545454545456
aF314.90909090909093
aF311.72727272727275
aF312.8181818181818
aF314.54545454545456
aF312.8181818181818
aF312.09090909090907
aF312.3636363636364
aF311.0
aF314.72727272727275
aF313.6363636363636
aF313.6363636363636
aF313.6363636363636
aF313.6363636363636
aF313.6363636363636
aF311.8181818181818
aF311.8181818181818
aF312.8181818181818
aF310.45454545454544
aF311.90909090909093
aF311.8181818181818
aF311.90909090909093
aF311.90909090909093
aF311.8181818181818
aF312.09090909090907
aF312.27272727272725
aF312.09090909090907
aF312.09090909090907
aF312.09090909090907
aF312.09090909090907
aF313.1818181818182
aF312.0
aF312.0
aF312.0
aF311.45454545454544
aF311.0
aF312.1818181818182
aF314.54545454545456
aF314.54545454545456
aF311.1818181818182
aF312.0
aF311.1818181818182
aF311.6363636363636
aF311.6363636363636
aF312.09090909090907
aF312.0
aF312.0
aF312.0
aF313.6363636363636
aF313.6363636363636
aF313.6363636363636
aF313.6363636363636
aF313.6363636363636
aF311.54545454545456
aF312.3636363636364
aF312.3636363636364
aF312.0
aF311.54545454545456
aF311.54545454545456
aF313.0
aF313.0
aF315.27272727272725
aF315.27272727272725
aF315.27272727272725
aF313.72727272727275
aF313.0
aF313.09090909090907
aF313.0
aF313.90909090909093
aF313.0
aF313.27272727272725
aF311.45454545454544
aF311.45454545454544
aF311.72727272727275
aF311.72727272727275
aF312.45454545454544
aF312.45454545454544
aF312.45454545454544
aF312.45454545454544
aF312.6363636363636
aF314.09090909090907
aF312.45454545454544
aF312.09090909090907
aF312.09090909090907
aF312.90909090909093
aF312.1818181818182
aF312.27272727272725
aF312.27272727272725
aF312.72727272727275
aF312.72727272727275
aF312.72727272727275
aF313.27272727272725
aF312.72727272727275
aF312.72727272727275
aF313.6363636363636
aF313.6363636363636
aF313.6363636363636
aF313.3636363636364
aF313.3636363636364
aF313.27272727272725
aF313.27272727272725
aF312.6363636363636
aF312.09090909090907
aF312.09090909090907
aF311.8181818181818
aF312.8181818181818
aF312.8181818181818
aF311.72727272727275
aF311.1818181818182
aF311.54545454545456
aF311.54545454545456
aF311.90909090909093
aF311.90909090909093
aF313.45454545454544
aF313.45454545454544
aF312.54545454545456
aF312.3636363636364
aF312.3636363636364
aF312.3636363636364
aF312.3636363636364
aF312.3636363636364
aF311.09090909090907
aF314.27272727272725
aF311.72727272727275
aF312.09090909090907
aF313.09090909090907
aF313.09090909090907
aF313.09090909090907
aF313.09090909090907
aF314.90909090909093
aF314.90909090909093
aF313.8181818181818
aF313.8181818181818
aF313.8181818181818
aF313.8181818181818
aF313.8181818181818
aF312.8181818181818
aF312.1818181818182
aF312.1818181818182
aF312.3636363636364
aF312.3636363636364
aF311.27272727272725
aF311.27272727272725
aF311.27272727272725
aF312.27272727272725
aF312.27272727272725
aF312.27272727272725
aF312.27272727272725
aF312.27272727272725
aF312.27272727272725
aF312.27272727272725
aF311.27272727272725
aF310.6363636363636
aF312.8181818181818
aF312.8181818181818
aF312.8181818181818
aF312.8181818181818
aF312.90909090909093
aF312.3636363636364
aF312.09090909090907
aF312.09090909090907
aF312.09090909090907
aF312.09090909090907
aF311.09090909090907
aF312.27272727272725
aF311.3636363636364
aF311.54545454545456
aF311.27272727272725
aF311.1818181818182
aF311.1818181818182
aF311.27272727272725
aF310.27272727272725
aF310.45454545454544
aF311.90909090909093
aF311.90909090909093
aF311.90909090909093
aF311.90909090909093
aF311.8181818181818
aF311.27272727272725
aF311.09090909090907
aF310.6363636363636
aF313.72727272727275
aF312.09090909090907
aF310.6363636363636
aF312.3636363636364
aF312.3636363636364
aF311.8181818181818
aF311.8181818181818
aF311.90909090909093
aF312.90909090909093
aF313.0
aF313.0
aF313.0
aF311.90909090909093
aF311.90909090909093
aF311.90909090909093
aF311.6363636363636
aF310.8181818181818
aF311.1818181818182
aF311.45454545454544
aF311.3636363636364
aF311.3636363636364
aF312.0
aF312.8181818181818
aF312.8181818181818
aF312.8181818181818
aF314.0
aF314.0
aF314.27272727272725
aF314.27272727272725
aF314.27272727272725
aF314.27272727272725
aF314.27272727272725
aF312.09090909090907
aF311.8181818181818
aF311.8181818181818
aF311.8181818181818
aF312.72727272727275
aF312.09090909090907
aF311.8181818181818
aF312.27272727272725
aF312.27272727272725
aF312.90909090909093
aF312.90909090909093
aF311.6363636363636
aF311.6363636363636
aF312.54545454545456
aF312.27272727272725
aF313.09090909090907
aF313.09090909090907
aF313.0
aF313.1818181818182
aF312.09090909090907
aF312.0
aF310.72727272727275
aF314.09090909090907
aF314.09090909090907
aF311.72727272727275
aF312.90909090909093
aF311.72727272727275
aF311.72727272727275
aF312.45454545454544
aF313.1818181818182
aF313.1818181818182
aF313.1818181818182
aF313.1818181818182
aF314.3636363636364
aF314.3636363636364
aF313.1818181818182
aF313.1818181818182
aF314.45454545454544
aF312.72727272727275
aF311.45454545454544
aF312.3636363636364
aF310.72727272727275
aF312.3636363636364
aF312.3636363636364
aF312.1818181818182
aF312.45454545454544
aF312.45454545454544
aF312.45454545454544
aF312.45454545454544
aF313.8181818181818
aF313.8181818181818
aF312.72727272727275
aF311.6363636363636
aF312.54545454545456
aF312.1818181818182
aF312.1818181818182
aF312.1818181818182
aa.